ccopy_reg
_reconstructor
p1
(cneat.chromosome
Chromosome
p2
c__builtin__
object
p3
NtRp4
(dp5
S'species_id'
p6
I125
sS'_connection_genes'
p7
(dp8
(I6
I9
tp9
g1
(cneat.genome
ConnectionGene
p10
g3
NtRp11
(dp12
S'_ConnectionGene__weight'
p13
F6.1531623376083626
sS'_ConnectionGene__in'
p14
I6
sS'_ConnectionGene__enabled'
p15
I01
sS'_ConnectionGene__out'
p16
I9
sS'_ConnectionGene__innov_number'
p17
I47
sbs(I11
I11
tp18
g1
(g10
g3
NtRp19
(dp20
g13
F2.2138417868214786
sg14
I11
sg15
I01
sg16
I11
sg17
I66
sbs(I7
I12
tp21
g1
(g10
g3
NtRp22
(dp23
g13
F-1.3880223807436978
sg14
I7
sg15
I01
sg16
I12
sg17
I90
sbs(I12
I12
tp24
g1
(g10
g3
NtRp25
(dp26
g13
F7.0594697408360343
sg14
I12
sg15
I01
sg16
I12
sg17
I95
sbs(I1
I6
tp27
g1
(g10
g3
NtRp28
(dp29
g13
F5.1353487925974672
sg14
I1
sg15
I01
sg16
I6
sg17
I8
sbs(I3
I7
tp30
g1
(g10
g3
NtRp31
(dp32
g13
F11.297384014873831
sg14
I3
sg15
I01
sg16
I7
sg17
I19
sbs(I2
I5
tp33
g1
(g10
g3
NtRp34
(dp35
g13
F-42.106216331536864
sg14
I2
sg15
I01
sg16
I5
sg17
I2
sbs(I1
I11
tp36
g1
(g10
g3
NtRp37
(dp38
g13
F-10.170155232695663
sg14
I1
sg15
I01
sg16
I11
sg17
I67
sbs(I8
I5
tp39
g1
(g10
g3
NtRp40
(dp41
g13
F0.20592119903734396
sg14
I8
sg15
I01
sg16
I5
sg17
I23
sbs(I5
I8
tp42
g1
(g10
g3
NtRp43
(dp44
g13
F0.33900974921221849
sg14
I5
sg15
I01
sg16
I8
sg17
I22
sbs(I10
I8
tp45
g1
(g10
g3
NtRp46
(dp47
g13
F-21.202202407967075
sg14
I10
sg15
I01
sg16
I8
sg17
I55
sbs(I6
I7
tp48
g1
(g10
g3
NtRp49
(dp50
g13
F0.67998689974330473
sg14
I6
sg15
I01
sg16
I7
sg17
I13
sbs(I5
I5
tp51
g1
(g10
g3
NtRp52
(dp53
g13
F-32.308244323353229
sg14
I5
sg15
I01
sg16
I5
sg17
I5
sbs(I11
I5
tp54
g1
(g10
g3
NtRp55
(dp56
g13
F-23.001830113908891
sg14
I11
sg15
I01
sg16
I5
sg17
I68
sbs(I10
I7
tp57
g1
(g10
g3
NtRp58
(dp59
g13
F-1.0479331910340988
sg14
I10
sg15
I01
sg16
I7
sg17
I38
sbs(I7
I6
tp60
g1
(g10
g3
NtRp61
(dp62
g13
F10.873599493993835
sg14
I7
sg15
I01
sg16
I6
sg17
I16
sbs(I6
I10
tp63
g1
(g10
g3
NtRp64
(dp65
g13
F-26.556047602194312
sg14
I6
sg15
I01
sg16
I10
sg17
I53
sbs(I12
I6
tp66
g1
(g10
g3
NtRp67
(dp68
g13
F-3.5079785653394042
sg14
I12
sg15
I01
sg16
I6
sg17
I92
sbs(I13
I7
tp69
g1
(g10
g3
NtRp70
(dp71
g13
F3.5410293639261021
sg14
I13
sg15
I01
sg16
I7
sg17
I80
sbs(I4
I10
tp72
g1
(g10
g3
NtRp73
(dp74
g13
F22.972931375081835
sg14
I4
sg15
I01
sg16
I10
sg17
I51
sbs(I2
I6
tp75
g1
(g10
g3
NtRp76
(dp77
g13
F-17.067255438560839
sg14
I2
sg15
I01
sg16
I6
sg17
I10
sbs(I5
I11
tp78
g1
(g10
g3
NtRp79
(dp80
g13
F6.9884948165056899
sg14
I5
sg15
I01
sg16
I11
sg17
I63
sbs(I4
I5
tp81
g1
(g10
g3
NtRp82
(dp83
g13
F-7.8361258465289705
sg14
I4
sg15
I01
sg16
I5
sg17
I4
sbs(I7
I5
tp84
g1
(g10
g3
NtRp85
(dp86
g13
F-1.0374949871240455
sg14
I7
sg15
I01
sg16
I5
sg17
I14
sbs(I12
I11
tp87
g1
(g10
g3
NtRp88
(dp89
g13
F-12.549789026665334
sg14
I12
sg15
I01
sg16
I11
sg17
I102
sbs(I13
I10
tp90
g1
(g10
g3
NtRp91
(dp92
g13
F22.795891536240955
sg14
I13
sg15
I01
sg16
I10
sg17
I121
sbs(I3
I12
tp93
g1
(g10
g3
NtRp94
(dp95
g13
F-8.2405852834906916
sg14
I3
sg15
I01
sg16
I12
sg17
I89
sbs(I1
I12
tp96
g1
(g10
g3
NtRp97
(dp98
g13
F6.2674573608081463
sg14
I1
sg15
I01
sg16
I12
sg17
I88
sbs(I2
I11
tp99
g1
(g10
g3
NtRp100
(dp101
g13
F6.8473116881365277
sg14
I2
sg15
I01
sg16
I11
sg17
I75
sbs(I9
I9
tp102
g1
(g10
g3
NtRp103
(dp104
g13
F19.225313437834487
sg14
I9
sg15
I01
sg16
I9
sg17
I43
sbs(I6
I13
tp105
g1
(g10
g3
NtRp106
(dp107
g13
F5.9732368548684152
sg14
I6
sg15
I01
sg16
I13
sg17
I118
sbs(I12
I8
tp108
g1
(g10
g3
NtRp109
(dp110
g13
F29.139539026031851
sg14
I12
sg15
I01
sg16
I8
sg17
I85
sbs(I3
I11
tp111
g1
(g10
g3
NtRp112
(dp113
g13
F-10.231048436105018
sg14
I3
sg15
I01
sg16
I11
sg17
I69
sbs(I8
I9
tp114
g1
(g10
g3
NtRp115
(dp116
g13
F-22.722668494841962
sg14
I8
sg15
I01
sg16
I9
sg17
I44
sbs(I2
I12
tp117
g1
(g10
g3
NtRp118
(dp119
g13
F0.59612528896115013
sg14
I2
sg15
I01
sg16
I12
sg17
I77
sbs(I12
I13
tp120
g1
(g10
g3
NtRp121
(dp122
g13
F3.4573575313983684
sg14
I12
sg15
I01
sg16
I13
sg17
I93
sbs(I1
I5
tp123
g1
(g10
g3
NtRp124
(dp125
g13
F-8.6113788072040549
sg14
I1
sg15
I01
sg16
I5
sg17
I1
sbs(I3
I6
tp126
g1
(g10
g3
NtRp127
(dp128
g13
F26.037061990854387
sg14
I3
sg15
I01
sg16
I6
sg17
I9
sbs(I1
I10
tp129
g1
(g10
g3
NtRp130
(dp131
g13
F18.325635290342561
sg14
I1
sg15
I01
sg16
I10
sg17
I52
sbs(I8
I6
tp132
g1
(g10
g3
NtRp133
(dp134
g13
F-10.214834796331747
sg14
I8
sg15
I01
sg16
I6
sg17
I24
sbs(I10
I9
tp135
g1
(g10
g3
NtRp136
(dp137
g13
F-0.1743584220306591
sg14
I10
sg15
I01
sg16
I9
sg17
I62
sbs(I12
I7
tp138
g1
(g10
g3
NtRp139
(dp140
g13
F-4.178146452119706
sg14
I12
sg15
I01
sg16
I7
sg17
I91
sbs(I11
I9
tp141
g1
(g10
g3
NtRp142
(dp143
g13
F-25.22758960943592
sg14
I11
sg15
I01
sg16
I9
sg17
I61
sbs(I13
I6
tp144
g1
(g10
g3
NtRp145
(dp146
g13
F10.913781799531048
sg14
I13
sg15
I01
sg16
I6
sg17
I82
sbs(I4
I11
tp147
g1
(g10
g3
NtRp148
(dp149
g13
F30.671335160355287
sg14
I4
sg15
I01
sg16
I11
sg17
I64
sbs(I3
I5
tp150
g1
(g10
g3
NtRp151
(dp152
g13
F1.80415819702747
sg14
I3
sg15
I00
sg16
I5
sg17
I3
sbs(I2
I7
tp153
g1
(g10
g3
NtRp154
(dp155
g13
F-8.6678850347562939
sg14
I2
sg15
I01
sg16
I7
sg17
I15
sbs(I5
I10
tp156
g1
(g10
g3
NtRp157
(dp158
g13
F-5.0646206510028691
sg14
I5
sg15
I01
sg16
I10
sg17
I48
sbs(I4
I6
tp159
g1
(g10
g3
NtRp160
(dp161
g13
F31.098048396323211
sg14
I4
sg15
I01
sg16
I6
sg17
I11
sbs(I10
I10
tp162
g1
(g10
g3
NtRp163
(dp164
g13
F18.426915555019271
sg14
I10
sg15
I01
sg16
I10
sg17
I56
sbs(I5
I7
tp165
g1
(g10
g3
NtRp166
(dp167
g13
F-14.725130832128361
sg14
I5
sg15
I01
sg16
I7
sg17
I18
sbs(I8
I13
tp168
g1
(g10
g3
NtRp169
(dp170
g13
F-21.527631437751474
sg14
I8
sg15
I01
sg16
I13
sg17
I109
sbs(I4
I8
tp171
g1
(g10
g3
NtRp172
(dp173
g13
F1.6690118229942819
sg14
I4
sg15
I01
sg16
I8
sg17
I26
sbs(I2
I8
tp174
g1
(g10
g3
NtRp175
(dp176
g13
F-18.06953958269127
sg14
I2
sg15
I01
sg16
I8
sg17
I34
sbs(I5
I13
tp177
g1
(g10
g3
NtRp178
(dp179
g13
F10.978294678052135
sg14
I5
sg15
I01
sg16
I13
sg17
I114
sbs(I7
I11
tp180
g1
(g10
g3
NtRp181
(dp182
g13
F15.809206920569611
sg14
I7
sg15
I01
sg16
I11
sg17
I60
sbs(I14
I9
tp183
g1
(g10
g3
NtRp184
(dp185
g13
F1.8049592148965545
sg14
I14
sg15
I01
sg16
I9
sg17
I127
sbs(I12
I9
tp186
g1
(g10
g3
NtRp187
(dp188
g13
F-31.45957175121686
sg14
I12
sg15
I01
sg16
I9
sg17
I103
sbs(I13
I12
tp189
g1
(g10
g3
NtRp190
(dp191
g13
F-14.346202573729855
sg14
I13
sg15
I01
sg16
I12
sg17
I123
sbs(I3
I10
tp192
g1
(g10
g3
NtRp193
(dp194
g13
F-4.3997663272516121
sg14
I3
sg15
I01
sg16
I10
sg17
I57
sbs(I8
I10
tp195
g1
(g10
g3
NtRp196
(dp197
g13
F14.447246033529998
sg14
I8
sg15
I01
sg16
I10
sg17
I59
sbs(I9
I11
tp198
g1
(g10
g3
NtRp199
(dp200
g13
F3.4253561928369973
sg14
I9
sg15
I01
sg16
I11
sg17
I70
sbs(I11
I13
tp201
g1
(g10
g3
NtRp202
(dp203
g13
F-4.8470123834271988
sg14
I11
sg15
I01
sg16
I13
sg17
I110
sbs(I14
I10
tp204
g1
(g10
g3
NtRp205
(dp206
g13
F-2.5646952003837522
sg14
I14
sg15
I01
sg16
I10
sg17
I132
sbs(I3
I9
tp207
g1
(g10
g3
NtRp208
(dp209
g13
F-13.820600150385609
sg14
I3
sg15
I01
sg16
I9
sg17
I41
sbs(I1
I9
tp210
g1
(g10
g3
NtRp211
(dp212
g13
F2.7277707794589348
sg14
I1
sg15
I01
sg16
I9
sg17
I46
sbs(I8
I7
tp213
g1
(g10
g3
NtRp214
(dp215
g13
F4.4234754473992002
sg14
I8
sg15
I01
sg16
I7
sg17
I25
sbs(I9
I6
tp216
g1
(g10
g3
NtRp217
(dp218
g13
F-1.4509298103269546
sg14
I9
sg15
I01
sg16
I6
sg17
I42
sbs(I6
I5
tp219
g1
(g10
g3
NtRp220
(dp221
g13
F-44.732176514663337
sg14
I6
sg15
I01
sg16
I5
sg17
I7
sbs(I10
I5
tp222
g1
(g10
g3
NtRp223
(dp224
g13
F-39.118395506784331
sg14
I10
sg15
I01
sg16
I5
sg17
I50
sbs(I7
I13
tp225
g1
(g10
g3
NtRp226
(dp227
g13
F8.8104914366425948
sg14
I7
sg15
I01
sg16
I13
sg17
I101
sbs(I13
I5
tp228
g1
(g10
g3
NtRp229
(dp230
g13
F2.8276706226041641
sg14
I13
sg15
I01
sg16
I5
sg17
I94
sbs(I1
I7
tp231
g1
(g10
g3
NtRp232
(dp233
g13
F0.31427806633030148
sg14
I1
sg15
I01
sg16
I7
sg17
I21
sbs(I5
I9
tp234
g1
(g10
g3
NtRp235
(dp236
g13
F6.7270372259421238
sg14
I5
sg15
I01
sg16
I9
sg17
I27
sbs(I4
I7
tp237
g1
(g10
g3
NtRp238
(dp239
g13
F11.413788524879372
sg14
I4
sg15
I01
sg16
I7
sg17
I17
sbs(I10
I11
tp240
g1
(g10
g3
NtRp241
(dp242
g13
F-4.2891014702335948
sg14
I10
sg15
I01
sg16
I11
sg17
I96
sbs(I6
I6
tp243
g1
(g10
g3
NtRp244
(dp245
g13
F26.728856914422995
sg14
I6
sg15
I01
sg16
I6
sg17
I12
sbs(I5
I6
tp246
g1
(g10
g3
NtRp247
(dp248
g13
F-20.97221896348934
sg14
I5
sg15
I01
sg16
I6
sg17
I6
sbs(I10
I6
tp249
g1
(g10
g3
NtRp250
(dp251
g13
F0.51810213327718402
sg14
I10
sg15
I01
sg16
I6
sg17
I54
sbs(I7
I7
tp252
g1
(g10
g3
NtRp253
(dp254
g13
F-9.5293925537263817
sg14
I7
sg15
I00
sg16
I7
sg17
I20
sbs(I12
I5
tp255
g1
(g10
g3
NtRp256
(dp257
g13
F-4.1013271483724827
sg14
I12
sg15
I01
sg16
I5
sg17
I72
sbs(I3
I14
tp258
g1
(g10
g3
NtRp259
(dp260
g13
F4.7184040721510225
sg14
I3
sg15
I01
sg16
I14
sg17
I124
sbs(I4
I9
tp261
g1
(g10
g3
NtRp262
(dp263
g13
F1.6798623331175326
sg14
I4
sg15
I01
sg16
I9
sg17
I45
sbs(I2
I9
tp264
g1
(g10
g3
NtRp265
(dp266
g13
F12.406333194815879
sg14
I2
sg15
I01
sg16
I9
sg17
I40
sbs(I5
I12
tp267
g1
(g10
g3
NtRp268
(dp269
g13
F-9.5091279970245193
sg14
I5
sg15
I01
sg16
I12
sg17
I87
sbs(I10
I12
tp270
g1
(g10
g3
NtRp271
(dp272
g13
F4.0638667437199629
sg14
I10
sg15
I01
sg16
I12
sg17
I71
sbs(I7
I10
tp273
g1
(g10
g3
NtRp274
(dp275
g13
F8.0791832101126833
sg14
I7
sg15
I01
sg16
I10
sg17
I58
sbs(I12
I10
tp276
g1
(g10
g3
NtRp277
(dp278
g13
F-0.64596813108750128
sg14
I12
sg15
I01
sg16
I10
sg17
I83
sbs(I13
I11
tp279
g1
(g10
g3
NtRp280
(dp281
g13
F1.9201976797656199
sg14
I13
sg15
I01
sg16
I11
sg17
I115
sbs(I1
I13
tp282
g1
(g10
g3
NtRp283
(dp284
g13
F0.43004123023171692
sg14
I1
sg15
I01
sg16
I13
sg17
I104
sbs(I8
I11
tp285
g1
(g10
g3
NtRp286
(dp287
g13
F11.489613261915729
sg14
I8
sg15
I01
sg16
I11
sg17
I78
sbs(I4
I14
tp288
g1
(g10
g3
NtRp289
(dp290
g13
F-0.61747120777940323
sg14
I4
sg15
I01
sg16
I14
sg17
I128
sbs(I2
I10
tp291
g1
(g10
g3
NtRp292
(dp293
g13
F8.0180713891230369
sg14
I2
sg15
I01
sg16
I10
sg17
I49
sbs(I9
I10
tp294
g1
(g10
g3
NtRp295
(dp296
g13
F6.6423958293578238
sg14
I9
sg15
I01
sg16
I10
sg17
I37
sbs(I6
I12
tp297
g1
(g10
g3
NtRp298
(dp299
g13
F-11.662337088400205
sg14
I6
sg15
I01
sg16
I12
sg17
I97
sbs(I11
I12
tp300
g1
(g10
g3
NtRp301
(dp302
g13
F2.0721442101135823
sg14
I11
sg15
I01
sg16
I12
sg17
I100
sbs(I7
I9
tp303
g1
(g10
g3
NtRp304
(dp305
g13
F-6.7350701574775229
sg14
I7
sg15
I01
sg16
I9
sg17
I35
sbs(I13
I14
tp306
g1
(g10
g3
NtRp307
(dp308
g13
F1.9021037067119431
sg14
I13
sg15
I01
sg16
I14
sg17
I139
sbs(I3
I8
tp309
g1
(g10
g3
NtRp310
(dp311
g13
F2.111494782323315
sg14
I3
sg15
I01
sg16
I8
sg17
I29
sbs(I1
I8
tp312
g1
(g10
g3
NtRp313
(dp314
g13
F16.843038820886761
sg14
I1
sg15
I01
sg16
I8
sg17
I32
sbs(I8
I8
tp315
g1
(g10
g3
NtRp316
(dp317
g13
F-8.3414678781187259
sg14
I8
sg15
I01
sg16
I8
sg17
I30
sbs(I9
I5
tp318
g1
(g10
g3
NtRp319
(dp320
g13
F17.126566089442615
sg14
I9
sg15
I01
sg16
I5
sg17
I28
sbs(I11
I6
tp321
g1
(g10
g3
NtRp322
(dp323
g13
F5.4888536730335735
sg14
I11
sg15
I01
sg16
I6
sg17
I74
sbssS'_input_nodes'
p324
I4
sS'_output_nodes'
p325
I1
sS'_node_gene_type'
p326
cneat.genome
NodeGene
p327
sS'_conn_gene_type'
p328
g10
sS'fitness'
p329
I19
sS'parent2_id'
p330
I49908
sS'_id'
p331
I50008
sS'parent1_id'
p332
I49908
sS'_node_genes'
p333
(lp334
g1
(g327
g3
NtRp335
(dp336
S'_bias'
p337
I0
sS'_type'
p338
S'INPUT'
p339
sg331
I1
sS'_response'
p340
F4.9242730000000003
sS'_activation_type'
p341
Nsbag1
(g327
g3
NtRp342
(dp343
g337
I0
sg338
g339
sg331
I2
sg340
F4.9242730000000003
sg341
Nsbag1
(g327
g3
NtRp344
(dp345
g337
I0
sg338
g339
sg331
I3
sg340
F4.9242730000000003
sg341
Nsbag1
(g327
g3
NtRp346
(dp347
g337
I0
sg338
g339
sg331
I4
sg340
F4.9242730000000003
sg341
Nsbag1
(g327
g3
NtRp348
(dp349
g337
F-19.443851311205123
sg338
S'OUTPUT'
p350
sg331
I5
sg340
F-22.506987689196954
sg341
S'exp'
p351
sbag1
(g327
g3
NtRp352
(dp353
g337
F5.12632906342726
sg338
S'HIDDEN'
p354
sg331
I6
sg340
F14.650997849488167
sg341
g351
sbag1
(g327
g3
NtRp355
(dp356
g337
F-13.775944705988472
sg338
g354
sg331
I7
sg340
F-7.5662049522183263
sg341
g351
sbag1
(g327
g3
NtRp357
(dp358
g337
F-4.0898332273015869
sg338
g354
sg331
I8
sg340
F0.3966603185279024
sg341
g351
sbag1
(g327
g3
NtRp359
(dp360
g337
F3.0924062279564892
sg338
g354
sg331
I9
sg340
F18.071353206096791
sg341
g351
sbag1
(g327
g3
NtRp361
(dp362
g337
F-11.315504988419034
sg338
g354
sg331
I10
sg340
F2.5165211966363685
sg341
g351
sbag1
(g327
g3
NtRp363
(dp364
g337
F-1.9954138936835255
sg338
g354
sg331
I11
sg340
F19.027530054901682
sg341
g351
sbag1
(g327
g3
NtRp365
(dp366
g337
F-13.451174148255969
sg338
g354
sg331
I12
sg340
F-6.997423018575625
sg341
g351
sbag1
(g327
g3
NtRp367
(dp368
g337
F2.7383850449106988
sg338
g354
sg331
I13
sg340
F1.0195357717613502
sg341
g351
sbag1
(g327
g3
NtRp369
(dp370
g337
F0.50305069668831004
sg338
g354
sg331
I14
sg340
F4.0979334775290424
sg341
g351
sbasb.