ccopy_reg
_reconstructor
p1
(cneat.chromosome
Chromosome
p2
c__builtin__
object
p3
NtRp4
(dp5
S'species_id'
p6
I2
sS'_connection_genes'
p7
(dp8
(I5
I5
tp9
g1
(cneat.genome
ConnectionGene
p10
g3
NtRp11
(dp12
S'_ConnectionGene__weight'
p13
F0.28962216009796493
sS'_ConnectionGene__in'
p14
I5
sS'_ConnectionGene__enabled'
p15
I01
sS'_ConnectionGene__out'
p16
I5
sS'_ConnectionGene__innov_number'
p17
I5
sbs(I6
I6
tp18
g1
(g10
g3
NtRp19
(dp20
g13
F0.78316418659811926
sg14
I6
sg15
I01
sg16
I6
sg17
I10
sbs(I4
I5
tp21
g1
(g10
g3
NtRp22
(dp23
g13
F1.0868929753867389
sg14
I4
sg15
I01
sg16
I5
sg17
I4
sbs(I1
I5
tp24
g1
(g10
g3
NtRp25
(dp26
g13
F3.0725389837040842
sg14
I1
sg15
I01
sg16
I5
sg17
I1
sbs(I1
I6
tp27
g1
(g10
g3
NtRp28
(dp29
g13
F1.4080671925503263
sg14
I1
sg15
I01
sg16
I6
sg17
I8
sbs(I2
I5
tp30
g1
(g10
g3
NtRp31
(dp32
g13
F0.24873214834741941
sg14
I2
sg15
I01
sg16
I5
sg17
I2
sbs(I6
I5
tp33
g1
(g10
g3
NtRp34
(dp35
g13
F-1.0134957093789647
sg14
I6
sg15
I01
sg16
I5
sg17
I7
sbs(I3
I5
tp36
g1
(g10
g3
NtRp37
(dp38
g13
F2.5087010923861746
sg14
I3
sg15
I01
sg16
I5
sg17
I3
sbssS'_input_nodes'
p39
I4
sS'_output_nodes'
p40
I1
sS'_node_gene_type'
p41
cneat.genome
NodeGene
p42
sS'_conn_gene_type'
p43
g10
sS'fitness'
p44
I100000
sS'parent2_id'
p45
I944
sS'_id'
p46
I1039
sS'parent1_id'
p47
I944
sS'_node_genes'
p48
(lp49
g1
(g42
g3
NtRp50
(dp51
S'_bias'
p52
I0
sS'_type'
p53
S'INPUT'
p54
sg46
I1
sS'_response'
p55
F4.9242730000000003
sS'_activation_type'
p56
Nsbag1
(g42
g3
NtRp57
(dp58
g52
I0
sg53
g54
sg46
I2
sg55
F4.9242730000000003
sg56
Nsbag1
(g42
g3
NtRp59
(dp60
g52
I0
sg53
g54
sg46
I3
sg55
F4.9242730000000003
sg56
Nsbag1
(g42
g3
NtRp61
(dp62
g52
I0
sg53
g54
sg46
I4
sg55
F4.9242730000000003
sg56
Nsbag1
(g42
g3
NtRp63
(dp64
g52
F-2.5365808486665467
sg53
S'OUTPUT'
p65
sg46
I5
sg55
F3.7501859534035153
sg56
S'exp'
p66
sbag1
(g42
g3
NtRp67
(dp68
g52
F-0.62131746733275062
sg53
S'HIDDEN'
p69
sg46
I6
sg55
F4.2173534133333455
sg56
g66
sbasb.