ccopy_reg
_reconstructor
p1
(cneat.chromosome
Chromosome
p2
c__builtin__
object
p3
NtRp4
(dp5
S'species_id'
p6
I117
sS'_connection_genes'
p7
(dp8
(I16
I6
tp9
g1
(cneat.genome
ConnectionGene
p10
g3
NtRp11
(dp12
S'_ConnectionGene__weight'
p13
F-5.0520006080436524
sS'_ConnectionGene__in'
p14
I16
sS'_ConnectionGene__enabled'
p15
I01
sS'_ConnectionGene__out'
p16
I6
sS'_ConnectionGene__innov_number'
p17
I193
sbs(I14
I17
tp18
g1
(g10
g3
NtRp19
(dp20
g13
F-9.2128785834460611
sg14
I14
sg15
I01
sg16
I17
sg17
I214
sbs(I11
I11
tp21
g1
(g10
g3
NtRp22
(dp23
g13
F-1.1584554947907282
sg14
I11
sg15
I01
sg16
I11
sg17
I77
sbs(I10
I17
tp24
g1
(g10
g3
NtRp25
(dp26
g13
F1.2029925967034907
sg14
I10
sg15
I01
sg16
I17
sg17
I197
sbs(I7
I12
tp27
g1
(g10
g3
NtRp28
(dp29
g13
F-18.264712864168398
sg14
I7
sg15
I01
sg16
I12
sg17
I78
sbs(I12
I12
tp30
g1
(g10
g3
NtRp31
(dp32
g13
F4.6798141709963268
sg14
I12
sg15
I01
sg16
I12
sg17
I93
sbs(I6
I9
tp33
g1
(g10
g3
NtRp34
(dp35
g13
F-14.078001174503912
sg14
I6
sg15
I01
sg16
I9
sg17
I48
sbs(I1
I6
tp36
g1
(g10
g3
NtRp37
(dp38
g13
F34.9224922267789
sg14
I1
sg15
I01
sg16
I6
sg17
I10
sbs(I3
I7
tp39
g1
(g10
g3
NtRp40
(dp41
g13
F28.370782430832826
sg14
I3
sg15
I01
sg16
I7
sg17
I19
sbs(I2
I5
tp42
g1
(g10
g3
NtRp43
(dp44
g13
F20.838858093894586
sg14
I2
sg15
I01
sg16
I5
sg17
I2
sbs(I1
I11
tp45
g1
(g10
g3
NtRp46
(dp47
g13
F12.665855807671806
sg14
I1
sg15
I01
sg16
I11
sg17
I65
sbs(I8
I5
tp48
g1
(g10
g3
NtRp49
(dp50
g13
F40.033758096632759
sg14
I8
sg15
I01
sg16
I5
sg17
I25
sbs(I5
I8
tp51
g1
(g10
g3
NtRp52
(dp53
g13
F-12.813817763401453
sg14
I5
sg15
I01
sg16
I8
sg17
I29
sbs(I10
I8
tp54
g1
(g10
g3
NtRp55
(dp56
g13
F18.616071877167048
sg14
I10
sg15
I01
sg16
I8
sg17
I49
sbs(I6
I7
tp57
g1
(g10
g3
NtRp58
(dp59
g13
F-36.901445717291878
sg14
I6
sg15
I01
sg16
I7
sg17
I20
sbs(I5
I5
tp60
g1
(g10
g3
NtRp61
(dp62
g13
F-50
sg14
I5
sg15
I01
sg16
I5
sg17
I5
sbs(I11
I5
tp63
g1
(g10
g3
NtRp64
(dp65
g13
F-13.535778432244605
sg14
I11
sg15
I01
sg16
I5
sg17
I69
sbs(I10
I7
tp66
g1
(g10
g3
NtRp67
(dp68
g13
F6.543612948043906
sg14
I10
sg15
I01
sg16
I7
sg17
I47
sbs(I7
I6
tp69
g1
(g10
g3
NtRp70
(dp71
g13
F-15.6215602155273
sg14
I7
sg15
I01
sg16
I6
sg17
I17
sbs(I6
I10
tp72
g1
(g10
g3
NtRp73
(dp74
g13
F13.354945682992298
sg14
I6
sg15
I01
sg16
I10
sg17
I58
sbs(I12
I6
tp75
g1
(g10
g3
NtRp76
(dp77
g13
F24.160399363667864
sg14
I12
sg15
I01
sg16
I6
sg17
I86
sbs(I15
I11
tp78
g1
(g10
g3
NtRp79
(dp80
g13
F24.981047672270492
sg14
I15
sg15
I01
sg16
I11
sg17
I143
sbs(I13
I7
tp81
g1
(g10
g3
NtRp82
(dp83
g13
F8.898599156210965
sg14
I13
sg15
I01
sg16
I7
sg17
I107
sbs(I12
I17
tp84
g1
(g10
g3
NtRp85
(dp86
g13
F-7.6959620765488612
sg14
I12
sg15
I01
sg16
I17
sg17
I206
sbs(I8
I15
tp87
g1
(g10
g3
NtRp88
(dp89
g13
F-21.510246051944947
sg14
I8
sg15
I01
sg16
I15
sg17
I163
sbs(I4
I10
tp90
g1
(g10
g3
NtRp91
(dp92
g13
F-27.046143176971182
sg14
I4
sg15
I01
sg16
I10
sg17
I45
sbs(I2
I6
tp93
g1
(g10
g3
NtRp94
(dp95
g13
F-13.23011152572748
sg14
I2
sg15
I01
sg16
I6
sg17
I6
sbs(I9
I14
tp96
g1
(g10
g3
NtRp97
(dp98
g13
F10.045046253786783
sg14
I9
sg15
I01
sg16
I14
sg17
I128
sbs(I15
I18
tp99
g1
(g10
g3
NtRp100
(dp101
g13
F-9.7425638024200492
sg14
I15
sg15
I01
sg16
I18
sg17
I240
sbs(I5
I11
tp102
g1
(g10
g3
NtRp103
(dp104
g13
F3.2270134416939316
sg14
I5
sg15
I01
sg16
I11
sg17
I72
sbs(I4
I5
tp105
g1
(g10
g3
NtRp106
(dp107
g13
F34.024982972936485
sg14
I4
sg15
I01
sg16
I5
sg17
I4
sbs(I10
I13
tp108
g1
(g10
g3
NtRp109
(dp110
g13
F-30.49426293676505
sg14
I10
sg15
I01
sg16
I13
sg17
I106
sbs(I4
I16
tp111
g1
(g10
g3
NtRp112
(dp113
g13
F8.7661885351970348
sg14
I4
sg15
I01
sg16
I16
sg17
I173
sbs(I9
I16
tp114
g1
(g10
g3
NtRp115
(dp116
g13
F13.367739265952773
sg14
I9
sg15
I01
sg16
I16
sg17
I196
sbs(I7
I5
tp117
g1
(g10
g3
NtRp118
(dp119
g13
F38.215663275583751
sg14
I7
sg15
I00
sg16
I5
sg17
I14
sbs(I14
I15
tp120
g1
(g10
g3
NtRp121
(dp122
g13
F-13.328851661572406
sg14
I14
sg15
I01
sg16
I15
sg17
I155
sbs(I12
I11
tp123
g1
(g10
g3
NtRp124
(dp125
g13
F17.133106611959718
sg14
I12
sg15
I01
sg16
I11
sg17
I81
sbs(I17
I13
tp126
g1
(g10
g3
NtRp127
(dp128
g13
F-0.81674115316512486
sg14
I17
sg15
I01
sg16
I13
sg17
I219
sbs(I15
I14
tp129
g1
(g10
g3
NtRp130
(dp131
g13
F3.1782414313297114
sg14
I15
sg15
I01
sg16
I14
sg17
I156
sbs(I13
I10
tp132
g1
(g10
g3
NtRp133
(dp134
g13
F-18.820646681812541
sg14
I13
sg15
I01
sg16
I10
sg17
I100
sbs(I2
I17
tp135
g1
(g10
g3
NtRp136
(dp137
g13
F0.71208706860270832
sg14
I2
sg15
I01
sg16
I17
sg17
I180
sbs(I17
I18
tp138
g1
(g10
g3
NtRp139
(dp140
g13
F9.5199961168300007
sg14
I17
sg15
I01
sg16
I18
sg17
I261
sbs(I3
I12
tp141
g1
(g10
g3
NtRp142
(dp143
g13
F17.627266468313998
sg14
I3
sg15
I01
sg16
I12
sg17
I90
sbs(I1
I12
tp144
g1
(g10
g3
NtRp145
(dp146
g13
F8.6168748534054558
sg14
I1
sg15
I01
sg16
I12
sg17
I80
sbs(I8
I12
tp147
g1
(g10
g3
NtRp148
(dp149
g13
F-13.559630712134966
sg14
I8
sg15
I01
sg16
I12
sg17
I82
sbs(I4
I15
tp150
g1
(g10
g3
NtRp151
(dp152
g13
F11.807166127264122
sg14
I4
sg15
I01
sg16
I15
sg17
I148
sbs(I2
I11
tp153
g1
(g10
g3
NtRp154
(dp155
g13
F5.4039394827005207
sg14
I2
sg15
I01
sg16
I11
sg17
I63
sbs(I9
I9
tp156
g1
(g10
g3
NtRp157
(dp158
g13
F5.9075676002233912
sg14
I9
sg15
I01
sg16
I9
sg17
I44
sbs(I1
I7
tp159
g1
(g10
g3
NtRp160
(dp161
g13
F21.722347144962448
sg14
I1
sg15
I01
sg16
I7
sg17
I16
sbs(I5
I14
tp162
g1
(g10
g3
NtRp163
(dp164
g13
F1.1792544638200506
sg14
I5
sg15
I01
sg16
I14
sg17
I122
sbs(I3
I18
tp165
g1
(g10
g3
NtRp166
(dp167
g13
F-1.8941337677446504
sg14
I3
sg15
I01
sg16
I18
sg17
I305
sbs(I10
I14
tp168
g1
(g10
g3
NtRp169
(dp170
g13
F-31.660786091739286
sg14
I10
sg15
I01
sg16
I14
sg17
I117
sbs(I6
I13
tp171
g1
(g10
g3
NtRp172
(dp173
g13
F-24.011593218453232
sg14
I6
sg15
I01
sg16
I13
sg17
I112
sbs(I11
I15
tp174
g1
(g10
g3
NtRp175
(dp176
g13
F5.9543364298564549
sg14
I11
sg15
I01
sg16
I15
sg17
I137
sbs(I7
I8
tp177
g1
(g10
g3
NtRp178
(dp179
g13
F2.8407151888087174
sg14
I7
sg15
I01
sg16
I8
sg17
I31
sbs(I14
I8
tp180
g1
(g10
g3
NtRp181
(dp182
g13
F-18.256159587809098
sg14
I14
sg15
I01
sg16
I8
sg17
I124
sbs(I12
I8
tp183
g1
(g10
g3
NtRp184
(dp185
g13
F16.117196525425562
sg14
I12
sg15
I01
sg16
I8
sg17
I84
sbs(I11
I16
tp186
g1
(g10
g3
NtRp187
(dp188
g13
F1.4248742897986895
sg14
I11
sg15
I01
sg16
I16
sg17
I159
sbs(I15
I13
tp189
g1
(g10
g3
NtRp190
(dp191
g13
F4.2279535319039869
sg14
I15
sg15
I01
sg16
I13
sg17
I162
sbs(I13
I13
tp192
g1
(g10
g3
NtRp193
(dp194
g13
F-28.695434564493606
sg14
I13
sg15
I01
sg16
I13
sg17
I115
sbs(I2
I18
tp195
g1
(g10
g3
NtRp196
(dp197
g13
F0.93214431733639591
sg14
I2
sg15
I01
sg16
I18
sg17
I230
sbs(I3
I11
tp198
g1
(g10
g3
NtRp199
(dp200
g13
F12.928231013816594
sg14
I3
sg15
I01
sg16
I11
sg17
I61
sbs(I1
I15
tp201
g1
(g10
g3
NtRp202
(dp203
g13
F1.8428087523360637
sg14
I1
sg15
I01
sg16
I15
sg17
I166
sbs(I8
I9
tp204
g1
(g10
g3
NtRp205
(dp206
g13
F-1.7072684036574326
sg14
I8
sg15
I01
sg16
I9
sg17
I35
sbs(I4
I12
tp207
g1
(g10
g3
NtRp208
(dp209
g13
F1.5094728403908511
sg14
I4
sg15
I01
sg16
I12
sg17
I96
sbs(I2
I12
tp210
g1
(g10
g3
NtRp211
(dp212
g13
F1.1458904211861931
sg14
I2
sg15
I01
sg16
I12
sg17
I94
sbs(I16
I14
tp213
g1
(g10
g3
NtRp214
(dp215
g13
F-2.8583674151854228
sg14
I16
sg15
I01
sg16
I14
sg17
I175
sbs(I16
I7
tp216
g1
(g10
g3
NtRp217
(dp218
g13
F-0.72958451284799419
sg14
I16
sg15
I01
sg16
I7
sg17
I177
sbs(I6
I14
tp219
g1
(g10
g3
NtRp220
(dp221
g13
F15.013297170437696
sg14
I6
sg15
I01
sg16
I14
sg17
I131
sbs(I11
I10
tp222
g1
(g10
g3
NtRp223
(dp224
g13
F-21.259249474759613
sg14
I11
sg15
I01
sg16
I10
sg17
I62
sbs(I17
I6
tp225
g1
(g10
g3
NtRp226
(dp227
g13
F-8.3433945337673059
sg14
I17
sg15
I01
sg16
I6
sg17
I202
sbs(I7
I15
tp228
g1
(g10
g3
NtRp229
(dp230
g13
F2.7743435284178215
sg14
I7
sg15
I01
sg16
I15
sg17
I142
sbs(I14
I5
tp231
g1
(g10
g3
NtRp232
(dp233
g13
F25.449346012610228
sg14
I14
sg15
I01
sg16
I5
sg17
I133
sbs(I12
I13
tp234
g1
(g10
g3
NtRp235
(dp236
g13
F3.3331579822056705
sg14
I12
sg15
I01
sg16
I13
sg17
I114
sbs(I17
I11
tp237
g1
(g10
g3
NtRp238
(dp239
g13
F-10.415131493899491
sg14
I17
sg15
I01
sg16
I11
sg17
I187
sbs(I13
I16
tp240
g1
(g10
g3
NtRp241
(dp242
g13
F-4.3312531964906817
sg14
I13
sg15
I01
sg16
I16
sg17
I190
sbs(I1
I5
tp243
g1
(g10
g3
NtRp244
(dp245
g13
F-19.137177660544936
sg14
I1
sg15
I01
sg16
I5
sg17
I1
sbs(I3
I6
tp246
g1
(g10
g3
NtRp247
(dp248
g13
F-21.634059255505377
sg14
I3
sg15
I01
sg16
I6
sg17
I8
sbs(I1
I10
tp249
g1
(g10
g3
NtRp250
(dp251
g13
F-2.9186189802860669
sg14
I1
sg15
I01
sg16
I10
sg17
I55
sbs(I8
I6
tp252
g1
(g10
g3
NtRp253
(dp254
g13
F-46.1219104407188
sg14
I8
sg15
I01
sg16
I6
sg17
I23
sbs(I10
I9
tp255
g1
(g10
g3
NtRp256
(dp257
g13
F-21.049437798665124
sg14
I10
sg15
I01
sg16
I9
sg17
I52
sbs(I9
I7
tp258
g1
(g10
g3
NtRp259
(dp260
g13
F36.751916647802432
sg14
I9
sg15
I01
sg16
I7
sg17
I34
sbs(I15
I12
tp261
g1
(g10
g3
NtRp262
(dp263
g13
F-7.0662886720056965
sg14
I15
sg15
I01
sg16
I12
sg17
I167
sbs(I6
I11
tp264
g1
(g10
g3
NtRp265
(dp266
g13
F1.2181704812408911
sg14
I6
sg15
I01
sg16
I11
sg17
I67
sbs(I5
I17
tp267
g1
(g10
g3
NtRp268
(dp269
g13
F10.147781856351038
sg14
I5
sg15
I01
sg16
I17
sg17
I208
sbs(I12
I7
tp270
g1
(g10
g3
NtRp271
(dp272
g13
F-19.547767496276332
sg14
I12
sg15
I01
sg16
I7
sg17
I89
sbs(I11
I9
tp273
g1
(g10
g3
NtRp274
(dp275
g13
F-7.8994071954352849
sg14
I11
sg15
I01
sg16
I9
sg17
I73
sbs(I15
I10
tp276
g1
(g10
g3
NtRp277
(dp278
g13
F-20.093820245685901
sg14
I15
sg15
I01
sg16
I10
sg17
I138
sbs(I14
I6
tp279
g1
(g10
g3
NtRp280
(dp281
g13
F-4.4552811585211085
sg14
I14
sg15
I01
sg16
I6
sg17
I129
sbs(I13
I6
tp282
g1
(g10
g3
NtRp283
(dp284
g13
F28.784541560114313
sg14
I13
sg15
I01
sg16
I6
sg17
I98
sbs(I18
I6
tp285
g1
(g10
g3
NtRp286
(dp287
g13
F-11.046075578026255
sg14
I18
sg15
I01
sg16
I6
sg17
I236
sbs(I15
I7
tp288
g1
(g10
g3
NtRp289
(dp290
g13
F-5.4202073765749894
sg14
I15
sg15
I01
sg16
I7
sg17
I145
sbs(I4
I11
tp291
g1
(g10
g3
NtRp292
(dp293
g13
F-1.369516172597524
sg14
I4
sg15
I01
sg16
I11
sg17
I75
sbs(I3
I5
tp294
g1
(g10
g3
NtRp295
(dp296
g13
F-19.456169278722513
sg14
I3
sg15
I01
sg16
I5
sg17
I3
sbs(I2
I7
tp297
g1
(g10
g3
NtRp298
(dp299
g13
F-21.055747753972604
sg14
I2
sg15
I01
sg16
I7
sg17
I13
sbs(I9
I13
tp300
g1
(g10
g3
NtRp301
(dp302
g13
F29.157040753254567
sg14
I9
sg15
I01
sg16
I13
sg17
I101
sbs(I5
I10
tp303
g1
(g10
g3
NtRp304
(dp305
g13
F4.5134506090421871
sg14
I5
sg15
I01
sg16
I10
sg17
I59
sbs(I4
I6
tp306
g1
(g10
g3
NtRp307
(dp308
g13
F25.523313392065969
sg14
I4
sg15
I01
sg16
I6
sg17
I9
sbs(I10
I10
tp309
g1
(g10
g3
NtRp310
(dp311
g13
F-29.529739597772441
sg14
I10
sg15
I01
sg16
I10
sg17
I57
sbs(I15
I16
tp312
g1
(g10
g3
NtRp313
(dp314
g13
F1.3707876709880633
sg14
I15
sg15
I01
sg16
I16
sg17
I183
sbs(I5
I7
tp315
g1
(g10
g3
NtRp316
(dp317
g13
F-17.244973514582437
sg14
I5
sg15
I01
sg16
I7
sg17
I21
sbs(I6
I16
tp318
g1
(g10
g3
NtRp319
(dp320
g13
F3.1675762156401159
sg14
I6
sg15
I01
sg16
I16
sg17
I185
sbs(I14
I12
tp321
g1
(g10
g3
NtRp322
(dp323
g13
F16.694369735737297
sg14
I14
sg15
I01
sg16
I12
sg17
I127
sbs(I17
I12
tp324
g1
(g10
g3
NtRp325
(dp326
g13
F-9.0395062030997426
sg14
I17
sg15
I01
sg16
I12
sg17
I181
sbs(I15
I9
tp327
g1
(g10
g3
NtRp328
(dp329
g13
F16.324315253753134
sg14
I15
sg15
I01
sg16
I9
sg17
I152
sbs(I13
I9
tp330
g1
(g10
g3
NtRp331
(dp332
g13
F-10.327442610621205
sg14
I13
sg15
I01
sg16
I9
sg17
I109
sbs(I17
I17
tp333
g1
(g10
g3
NtRp334
(dp335
g13
F-7.5098709815485831
sg14
I17
sg15
I00
sg16
I17
sg17
I226
sbs(I3
I15
tp336
g1
(g10
g3
NtRp337
(dp338
g13
F-17.458527302449014
sg14
I3
sg15
I01
sg16
I15
sg17
I157
sbs(I8
I13
tp339
g1
(g10
g3
NtRp340
(dp341
g13
F6.2240558592658664
sg14
I8
sg15
I01
sg16
I13
sg17
I97
sbs(I4
I8
tp342
g1
(g10
g3
NtRp343
(dp344
g13
F11.428044927553136
sg14
I4
sg15
I01
sg16
I8
sg17
I24
sbs(I2
I8
tp345
g1
(g10
g3
NtRp346
(dp347
g13
F-5.7681624478167777
sg14
I2
sg15
I01
sg16
I8
sg17
I27
sbs(I9
I8
tp348
g1
(g10
g3
NtRp349
(dp350
g13
F6.1829829838535346
sg14
I9
sg15
I01
sg16
I8
sg17
I36
sbs(I5
I13
tp351
g1
(g10
g3
NtRp352
(dp353
g13
F22.65591273795452
sg14
I5
sg15
I01
sg16
I13
sg17
I108
sbs(I10
I15
tp354
g1
(g10
g3
NtRp355
(dp356
g13
F9.5749049224967031
sg14
I10
sg15
I01
sg16
I15
sg17
I151
sbs(I16
I16
tp357
g1
(g10
g3
NtRp358
(dp359
g13
F-1.1685429665378382
sg14
I16
sg15
I01
sg16
I16
sg17
I188
sbs(I11
I14
tp360
g1
(g10
g3
NtRp361
(dp362
g13
F10.864815977675354
sg14
I11
sg15
I01
sg16
I14
sg17
I126
sbs(I9
I18
tp363
g1
(g10
g3
NtRp364
(dp365
g13
F1.4994458920554146
sg14
I9
sg15
I01
sg16
I18
sg17
I242
sbs(I7
I11
tp366
g1
(g10
g3
NtRp367
(dp368
g13
F9.8361806641334315
sg14
I7
sg15
I01
sg16
I11
sg17
I70
sbs(I14
I9
tp369
g1
(g10
g3
NtRp370
(dp371
g13
F7.9186681835757105
sg14
I14
sg15
I01
sg16
I9
sg17
I121
sbs(I12
I9
tp372
g1
(g10
g3
NtRp373
(dp374
g13
F-5.321359102855415
sg14
I12
sg15
I01
sg16
I9
sg17
I79
sbs(I16
I17
tp375
g1
(g10
g3
NtRp376
(dp377
g13
F12.584780768715932
sg14
I16
sg15
I01
sg16
I17
sg17
I200
sbs(I13
I12
tp378
g1
(g10
g3
NtRp379
(dp380
g13
F-24.073081774474499
sg14
I13
sg15
I01
sg16
I12
sg17
I116
sbs(I3
I10
tp381
g1
(g10
g3
NtRp382
(dp383
g13
F10.135715079775171
sg14
I3
sg15
I01
sg16
I10
sg17
I53
sbs(I1
I14
tp384
g1
(g10
g3
NtRp385
(dp386
g13
F16.400731800067856
sg14
I1
sg15
I01
sg16
I14
sg17
I136
sbs(I8
I10
tp387
g1
(g10
g3
NtRp388
(dp389
g13
F2.277474188191916
sg14
I8
sg15
I01
sg16
I10
sg17
I60
sbs(I4
I13
tp390
g1
(g10
g3
NtRp391
(dp392
g13
F-10.539084561783733
sg14
I4
sg15
I01
sg16
I13
sg17
I110
sbs(I2
I13
tp393
g1
(g10
g3
NtRp394
(dp395
g13
F-0.42209494380377321
sg14
I2
sg15
I01
sg16
I13
sg17
I119
sbs(I9
I11
tp396
g1
(g10
g3
NtRp397
(dp398
g13
F6.0953622497366338
sg14
I9
sg15
I01
sg16
I11
sg17
I76
sbs(I3
I16
tp399
g1
(g10
g3
NtRp400
(dp401
g13
F4.1585023437187125
sg14
I3
sg15
I01
sg16
I16
sg17
I174
sbs(I8
I16
tp402
g1
(g10
g3
NtRp403
(dp404
g13
F-1.6301406861173213
sg14
I8
sg15
I01
sg16
I16
sg17
I194
sbs(I6
I15
tp405
g1
(g10
g3
NtRp406
(dp407
g13
F20.397286236865686
sg14
I6
sg15
I01
sg16
I15
sg17
I164
sbs(I11
I13
tp408
g1
(g10
g3
NtRp409
(dp410
g13
F-3.8708249645079911
sg14
I11
sg15
I01
sg16
I13
sg17
I99
sbs(I17
I5
tp411
g1
(g10
g3
NtRp412
(dp413
g13
F-10.315270579837396
sg14
I17
sg15
I01
sg16
I5
sg17
I203
sbs(I7
I14
tp414
g1
(g10
g3
NtRp415
(dp416
g13
F-5.6410585661250536
sg14
I7
sg15
I01
sg16
I14
sg17
I139
sbs(I14
I10
tp417
g1
(g10
g3
NtRp418
(dp419
g13
F-4.0820162367411426
sg14
I14
sg15
I01
sg16
I10
sg17
I146
sbs(I12
I14
tp420
g1
(g10
g3
NtRp421
(dp422
g13
F-3.4591520949009387
sg14
I12
sg15
I01
sg16
I14
sg17
I141
sbs(I13
I15
tp423
g1
(g10
g3
NtRp424
(dp425
g13
F4.5614087207786627
sg14
I13
sg15
I01
sg16
I15
sg17
I147
sbs(I18
I17
tp426
g1
(g10
g3
NtRp427
(dp428
g13
F-4.2518821605788979
sg14
I18
sg15
I01
sg16
I17
sg17
I244
sbs(I3
I9
tp429
g1
(g10
g3
NtRp430
(dp431
g13
F18.925232310631891
sg14
I3
sg15
I01
sg16
I9
sg17
I33
sbs(I1
I9
tp432
g1
(g10
g3
NtRp433
(dp434
g13
F-16.252064036405805
sg14
I1
sg15
I01
sg16
I9
sg17
I37
sbs(I8
I7
tp435
g1
(g10
g3
NtRp436
(dp437
g13
F-15.990031695646154
sg14
I8
sg15
I01
sg16
I7
sg17
I28
sbs(I2
I14
tp438
g1
(g10
g3
NtRp439
(dp440
g13
F-9.0229994949562506
sg14
I2
sg15
I01
sg16
I14
sg17
I130
sbs(I9
I6
tp441
g1
(g10
g3
NtRp442
(dp443
g13
F-16.645283711335232
sg14
I9
sg15
I01
sg16
I6
sg17
I43
sbs(I6
I5
tp444
g1
(g10
g3
NtRp445
(dp446
g13
F-39.698348441888811
sg14
I6
sg15
I01
sg16
I5
sg17
I7
sbs(I11
I7
tp447
g1
(g10
g3
NtRp448
(dp449
g13
F25.595493712692242
sg14
I11
sg15
I01
sg16
I7
sg17
I66
sbs(I10
I5
tp450
g1
(g10
g3
NtRp451
(dp452
g13
F7.3375471232711709
sg14
I10
sg15
I01
sg16
I5
sg17
I50
sbs(I16
I5
tp453
g1
(g10
g3
NtRp454
(dp455
g13
F7.7535864433486816
sg14
I16
sg15
I01
sg16
I5
sg17
I176
sbs(I6
I8
tp456
g1
(g10
g3
NtRp457
(dp458
g13
F24.446533633284535
sg14
I6
sg15
I01
sg16
I8
sg17
I30
sbs(I5
I16
tp459
g1
(g10
g3
NtRp460
(dp461
g13
F12.488410378502593
sg14
I5
sg15
I01
sg16
I16
sg17
I189
sbs(I11
I8
tp462
g1
(g10
g3
NtRp463
(dp464
g13
F38.735675883659333
sg14
I11
sg15
I01
sg16
I8
sg17
I64
sbs(I7
I13
tp465
g1
(g10
g3
NtRp466
(dp467
g13
F3.1689343237049066
sg14
I7
sg15
I01
sg16
I13
sg17
I103
sbs(I14
I7
tp468
g1
(g10
g3
NtRp469
(dp470
g13
F-6.1764121833947314
sg14
I14
sg15
I01
sg16
I7
sg17
I118
sbs(I13
I5
tp471
g1
(g10
g3
NtRp472
(dp473
g13
F-12.325399183751252
sg14
I13
sg15
I01
sg16
I5
sg17
I102
sbs(I15
I6
tp474
g1
(g10
g3
NtRp475
(dp476
g13
F5.441685773112269
sg14
I15
sg15
I01
sg16
I6
sg17
I150
sbs(I7
I9
tp477
g1
(g10
g3
NtRp478
(dp479
g13
F4.0726880901371381
sg14
I7
sg15
I01
sg16
I9
sg17
I42
sbs(I18
I18
tp480
g1
(g10
g3
NtRp481
(dp482
g13
F-1.9920092668686931
sg14
I18
sg15
I01
sg16
I18
sg17
I262
sbs(I9
I12
tp483
g1
(g10
g3
NtRp484
(dp485
g13
F0.053483873655507774
sg14
I9
sg15
I01
sg16
I12
sg17
I87
sbs(I5
I9
tp486
g1
(g10
g3
NtRp487
(dp488
g13
F-3.4845936689865762
sg14
I5
sg15
I01
sg16
I9
sg17
I41
sbs(I4
I7
tp489
g1
(g10
g3
NtRp490
(dp491
g13
F-4.8194816848787667
sg14
I4
sg15
I01
sg16
I7
sg17
I15
sbs(I10
I11
tp492
g1
(g10
g3
NtRp493
(dp494
g13
F-25.238013965216496
sg14
I10
sg15
I01
sg16
I11
sg17
I71
sbs(I6
I6
tp495
g1
(g10
g3
NtRp496
(dp497
g13
F0.56248501605400181
sg14
I6
sg15
I01
sg16
I6
sg17
I12
sbs(I5
I6
tp498
g1
(g10
g3
NtRp499
(dp500
g13
F-8.5538260857546504
sg14
I5
sg15
I01
sg16
I6
sg17
I11
sbs(I10
I6
tp501
g1
(g10
g3
NtRp502
(dp503
g13
F10.817449990539931
sg14
I10
sg15
I01
sg16
I6
sg17
I46
sbs(I7
I7
tp504
g1
(g10
g3
NtRp505
(dp506
g13
F-0.96053784704876133
sg14
I7
sg15
I01
sg16
I7
sg17
I18
sbs(I14
I13
tp507
g1
(g10
g3
NtRp508
(dp509
g13
F-4.9350945704399996
sg14
I14
sg15
I01
sg16
I13
sg17
I132
sbs(I12
I5
tp510
g1
(g10
g3
NtRp511
(dp512
g13
F3.1490115171856665
sg14
I12
sg15
I01
sg16
I5
sg17
I83
sbs(I15
I8
tp513
g1
(g10
g3
NtRp514
(dp515
g13
F12.914898112348306
sg14
I15
sg15
I01
sg16
I8
sg17
I153
sbs(I13
I8
tp516
g1
(g10
g3
NtRp517
(dp518
g13
F7.1495026034112961
sg14
I13
sg15
I01
sg16
I8
sg17
I104
sbs(I15
I5
tp519
g1
(g10
g3
NtRp520
(dp521
g13
F14.87524698930064
sg14
I15
sg15
I01
sg16
I5
sg17
I161
sbs(I3
I14
tp522
g1
(g10
g3
NtRp523
(dp524
g13
F-14.64254450685546
sg14
I3
sg15
I01
sg16
I14
sg17
I120
sbs(I8
I14
tp525
g1
(g10
g3
NtRp526
(dp527
g13
F-17.627851210133556
sg14
I8
sg15
I01
sg16
I14
sg17
I135
sbs(I4
I9
tp528
g1
(g10
g3
NtRp529
(dp530
g13
F-32.595240134114555
sg14
I4
sg15
I01
sg16
I9
sg17
I38
sbs(I2
I9
tp531
g1
(g10
g3
NtRp532
(dp533
g13
F-1.2473442661274183
sg14
I2
sg15
I01
sg16
I9
sg17
I39
sbs(I9
I15
tp534
g1
(g10
g3
NtRp535
(dp536
g13
F5.4342274199331042
sg14
I9
sg15
I01
sg16
I15
sg17
I165
sbs(I5
I12
tp537
g1
(g10
g3
NtRp538
(dp539
g13
F-2.7624829106758244
sg14
I5
sg15
I01
sg16
I12
sg17
I91
sbs(I10
I12
tp540
g1
(g10
g3
NtRp541
(dp542
g13
F-6.5279696968547576
sg14
I10
sg15
I00
sg16
I12
sg17
I85
sbs(I7
I10
tp543
g1
(g10
g3
NtRp544
(dp545
g13
F11.497763142053618
sg14
I7
sg15
I01
sg16
I10
sg17
I51
sbs(I14
I14
tp546
g1
(g10
g3
NtRp547
(dp548
g13
F-21.988234312747746
sg14
I14
sg15
I01
sg16
I14
sg17
I140
sbs(I12
I10
tp549
g1
(g10
g3
NtRp550
(dp551
g13
F23.959442949669057
sg14
I12
sg15
I01
sg16
I10
sg17
I95
sbs(I15
I15
tp552
g1
(g10
g3
NtRp553
(dp554
g13
F5.4059339856319504
sg14
I15
sg15
I01
sg16
I15
sg17
I158
sbs(I13
I11
tp555
g1
(g10
g3
NtRp556
(dp557
g13
F-11.330498538996157
sg14
I13
sg15
I01
sg16
I11
sg17
I113
sbs(I18
I13
tp558
g1
(g10
g3
NtRp559
(dp560
g13
F1.5043893130611323
sg14
I18
sg15
I01
sg16
I13
sg17
I241
sbs(I3
I13
tp561
g1
(g10
g3
NtRp562
(dp563
g13
F-10.618833002687795
sg14
I3
sg15
I01
sg16
I13
sg17
I105
sbs(I1
I13
tp564
g1
(g10
g3
NtRp565
(dp566
g13
F8.3982198161104247
sg14
I1
sg15
I01
sg16
I13
sg17
I111
sbs(I8
I11
tp567
g1
(g10
g3
NtRp568
(dp569
g13
F10.91736684841565
sg14
I8
sg15
I01
sg16
I11
sg17
I74
sbs(I4
I14
tp570
g1
(g10
g3
NtRp571
(dp572
g13
F-24.756930834482354
sg14
I4
sg15
I01
sg16
I14
sg17
I123
sbs(I2
I10
tp573
g1
(g10
g3
NtRp574
(dp575
g13
F13.436968135381218
sg14
I2
sg15
I01
sg16
I10
sg17
I56
sbs(I9
I10
tp576
g1
(g10
g3
NtRp577
(dp578
g13
F3.6953940024192033
sg14
I9
sg15
I01
sg16
I10
sg17
I54
sbs(I5
I15
tp579
g1
(g10
g3
NtRp580
(dp581
g13
F4.5302079093828045
sg14
I5
sg15
I01
sg16
I15
sg17
I154
sbs(I8
I17
tp582
g1
(g10
g3
NtRp583
(dp584
g13
F-11.23080323412819
sg14
I8
sg15
I01
sg16
I17
sg17
I186
sbs(I6
I12
tp585
g1
(g10
g3
NtRp586
(dp587
g13
F-8.023112102066861
sg14
I6
sg15
I01
sg16
I12
sg17
I92
sbs(I11
I12
tp588
g1
(g10
g3
NtRp589
(dp590
g13
F-26.626915332364582
sg14
I11
sg15
I01
sg16
I12
sg17
I88
sbs(I16
I12
tp591
g1
(g10
g3
NtRp592
(dp593
g13
F18.064179605154269
sg14
I16
sg15
I01
sg16
I12
sg17
I191
sbs(I14
I11
tp594
g1
(g10
g3
NtRp595
(dp596
g13
F-0.77672782606434765
sg14
I14
sg15
I01
sg16
I11
sg17
I125
sbs(I12
I15
tp597
g1
(g10
g3
NtRp598
(dp599
g13
F24.137368817742338
sg14
I12
sg15
I01
sg16
I15
sg17
I144
sbs(I11
I17
tp600
g1
(g10
g3
NtRp601
(dp602
g13
F0.7969749591731663
sg14
I11
sg15
I01
sg16
I17
sg17
I201
sbs(I17
I9
tp603
g1
(g10
g3
NtRp604
(dp605
g13
F-3.9013108173656397
sg14
I17
sg15
I01
sg16
I9
sg17
I223
sbs(I13
I14
tp606
g1
(g10
g3
NtRp607
(dp608
g13
F0.23837636093853098
sg14
I13
sg15
I01
sg16
I14
sg17
I134
sbs(I3
I8
tp609
g1
(g10
g3
NtRp610
(dp611
g13
F18.811585759372377
sg14
I3
sg15
I01
sg16
I8
sg17
I26
sbs(I16
I8
tp612
g1
(g10
g3
NtRp613
(dp614
g13
F3.2754334942709806
sg14
I16
sg15
I01
sg16
I8
sg17
I171
sbs(I1
I8
tp615
g1
(g10
g3
NtRp616
(dp617
g13
F3.8992639603522004
sg14
I1
sg15
I01
sg16
I8
sg17
I22
sbs(I8
I8
tp618
g1
(g10
g3
NtRp619
(dp620
g13
F2.757994428824591
sg14
I8
sg15
I01
sg16
I8
sg17
I32
sbs(I2
I15
tp621
g1
(g10
g3
NtRp622
(dp623
g13
F-13.862156234246344
sg14
I2
sg15
I01
sg16
I15
sg17
I149
sbs(I9
I5
tp624
g1
(g10
g3
NtRp625
(dp626
g13
F-27.228800936662637
sg14
I9
sg15
I01
sg16
I5
sg17
I40
sbs(I11
I6
tp627
g1
(g10
g3
NtRp628
(dp629
g13
F-4.7349839134877465
sg14
I11
sg15
I01
sg16
I6
sg17
I68
sbssS'_input_nodes'
p630
I4
sS'_output_nodes'
p631
I1
sS'_node_gene_type'
p632
cneat.genome
NodeGene
p633
sS'_conn_gene_type'
p634
g10
sS'fitness'
p635
I19
sS'parent2_id'
p636
I49913
sS'_id'
p637
I50010
sS'parent1_id'
p638
I49913
sS'_node_genes'
p639
(lp640
g1
(g633
g3
NtRp641
(dp642
S'_bias'
p643
I0
sS'_type'
p644
S'INPUT'
p645
sg637
I1
sS'_response'
p646
F4.9242730000000003
sS'_activation_type'
p647
Nsbag1
(g633
g3
NtRp648
(dp649
g643
I0
sg644
g645
sg637
I2
sg646
F4.9242730000000003
sg647
Nsbag1
(g633
g3
NtRp650
(dp651
g643
I0
sg644
g645
sg637
I3
sg646
F4.9242730000000003
sg647
Nsbag1
(g633
g3
NtRp652
(dp653
g643
I0
sg644
g645
sg637
I4
sg646
F4.9242730000000003
sg647
Nsbag1
(g633
g3
NtRp654
(dp655
g643
F13.451275453339852
sg644
S'OUTPUT'
p656
sg637
I5
sg646
F-5.5954413588801648
sg647
S'exp'
p657
sbag1
(g633
g3
NtRp658
(dp659
g643
F7.5905948404507617
sg644
S'HIDDEN'
p660
sg637
I6
sg646
F2.4231661513756597
sg647
g657
sbag1
(g633
g3
NtRp661
(dp662
g643
F-23.610312650788753
sg644
g660
sg637
I7
sg646
F24.842169474022132
sg647
g657
sbag1
(g633
g3
NtRp663
(dp664
g643
F-9.6232406668409123
sg644
g660
sg637
I8
sg646
F14.914570010710799
sg647
g657
sbag1
(g633
g3
NtRp665
(dp666
g643
F-9.2206026884922139
sg644
g660
sg637
I9
sg646
F-7.5854139079995315
sg647
g657
sbag1
(g633
g3
NtRp667
(dp668
g643
F-0.30768967828957128
sg644
g660
sg637
I10
sg646
F-0.60060519609598018
sg647
g657
sbag1
(g633
g3
NtRp669
(dp670
g643
F-11.76038522729783
sg644
g660
sg637
I11
sg646
F6.0270716184283462
sg647
g657
sbag1
(g633
g3
NtRp671
(dp672
g643
F16.564429528119419
sg644
g660
sg637
I12
sg646
F-6.7134746293994247
sg647
g657
sbag1
(g633
g3
NtRp673
(dp674
g643
F1.572181505211085
sg644
g660
sg637
I13
sg646
F7.0082327353182396
sg647
g657
sbag1
(g633
g3
NtRp675
(dp676
g643
F14.222964922495919
sg644
g660
sg637
I14
sg646
F-2.9965599757776311
sg647
g657
sbag1
(g633
g3
NtRp677
(dp678
g643
F2.6995457777394076
sg644
g660
sg637
I15
sg646
F22.199519501886169
sg647
g657
sbag1
(g633
g3
NtRp679
(dp680
g643
F0.91225363899693024
sg644
g660
sg637
I16
sg646
F-3.672093139372417
sg647
g657
sbag1
(g633
g3
NtRp681
(dp682
g643
F-5.7432449961834067
sg644
g660
sg637
I17
sg646
F2.7911178614633312
sg647
g657
sbag1
(g633
g3
NtRp683
(dp684
g643
F-3.3747252418490232
sg644
g660
sg637
I18
sg646
F4.7644429481934543
sg647
g657
sbasb.