ccopy_reg
_reconstructor
p1
(cneat.chromosome
Chromosome
p2
c__builtin__
object
p3
NtRp4
(dp5
S'species_id'
p6
I186
sS'_connection_genes'
p7
(dp8
(I2
I7
tp9
g1
(cneat.genome
ConnectionGene
p10
g3
NtRp11
(dp12
S'_ConnectionGene__weight'
p13
F-0.36326972282964365
sS'_ConnectionGene__in'
p14
I2
sS'_ConnectionGene__enabled'
p15
I01
sS'_ConnectionGene__out'
p16
I7
sS'_ConnectionGene__innov_number'
p17
I12
sbs(I4
I7
tp18
g1
(g10
g3
NtRp19
(dp20
g13
F1.2279969717967152
sg14
I4
sg15
I01
sg16
I7
sg17
I21
sbs(I2
I6
tp21
g1
(g10
g3
NtRp22
(dp23
g13
F-15.595242747749268
sg14
I2
sg15
I01
sg16
I6
sg17
I9
sbs(I6
I7
tp24
g1
(g10
g3
NtRp25
(dp26
g13
F1.5671113340267722
sg14
I6
sg15
I01
sg16
I7
sg17
I18
sbs(I5
I5
tp27
g1
(g10
g3
NtRp28
(dp29
g13
F-13.745519276569038
sg14
I5
sg15
I00
sg16
I5
sg17
I5
sbs(I6
I6
tp30
g1
(g10
g3
NtRp31
(dp32
g13
F6.9362682365026966
sg14
I6
sg15
I00
sg16
I6
sg17
I14
sbs(I5
I6
tp33
g1
(g10
g3
NtRp34
(dp35
g13
F8.374997377153754
sg14
I5
sg15
I01
sg16
I6
sg17
I11
sbs(I7
I6
tp36
g1
(g10
g3
NtRp37
(dp38
g13
F8.3823413203943158
sg14
I7
sg15
I01
sg16
I6
sg17
I17
sbs(I5
I7
tp39
g1
(g10
g3
NtRp40
(dp41
g13
F0.94207060749897797
sg14
I5
sg15
I01
sg16
I7
sg17
I15
sbs(I7
I7
tp42
g1
(g10
g3
NtRp43
(dp44
g13
F2.2288770398073399
sg14
I7
sg15
I01
sg16
I7
sg17
I25
sbs(I4
I6
tp45
g1
(g10
g3
NtRp46
(dp47
g13
F6.2988993850198129
sg14
I4
sg15
I01
sg16
I6
sg17
I8
sbs(I1
I5
tp48
g1
(g10
g3
NtRp49
(dp50
g13
F50
sg14
I1
sg15
I01
sg16
I5
sg17
I1
sbs(I1
I6
tp51
g1
(g10
g3
NtRp52
(dp53
g13
F-18.216862151915794
sg14
I1
sg15
I01
sg16
I6
sg17
I6
sbs(I3
I6
tp54
g1
(g10
g3
NtRp55
(dp56
g13
F7.7874392678067155
sg14
I3
sg15
I01
sg16
I6
sg17
I10
sbs(I1
I7
tp57
g1
(g10
g3
NtRp58
(dp59
g13
F-1.0573290313749881
sg14
I1
sg15
I01
sg16
I7
sg17
I16
sbs(I4
I5
tp60
g1
(g10
g3
NtRp61
(dp62
g13
F50
sg14
I4
sg15
I01
sg16
I5
sg17
I4
sbs(I3
I7
tp63
g1
(g10
g3
NtRp64
(dp65
g13
F-3.2795210860188293
sg14
I3
sg15
I01
sg16
I7
sg17
I22
sbs(I2
I5
tp66
g1
(g10
g3
NtRp67
(dp68
g13
F12.467238516661846
sg14
I2
sg15
I01
sg16
I5
sg17
I2
sbs(I6
I5
tp69
g1
(g10
g3
NtRp70
(dp71
g13
F-27.771317010159574
sg14
I6
sg15
I01
sg16
I5
sg17
I7
sbs(I3
I5
tp72
g1
(g10
g3
NtRp73
(dp74
g13
F-40.909172053434609
sg14
I3
sg15
I01
sg16
I5
sg17
I3
sbssS'_input_nodes'
p75
I4
sS'_output_nodes'
p76
I1
sS'_node_gene_type'
p77
cneat.genome
NodeGene
p78
sS'_conn_gene_type'
p79
g10
sS'fitness'
p80
I24
sS'parent2_id'
p81
I49989
sS'_id'
p82
I50097
sS'parent1_id'
p83
I49989
sS'_node_genes'
p84
(lp85
g1
(g78
g3
NtRp86
(dp87
S'_bias'
p88
I0
sS'_type'
p89
S'INPUT'
p90
sg82
I1
sS'_response'
p91
F4.9242730000000003
sS'_activation_type'
p92
Nsbag1
(g78
g3
NtRp93
(dp94
g88
I0
sg89
g90
sg82
I2
sg91
F4.9242730000000003
sg92
Nsbag1
(g78
g3
NtRp95
(dp96
g88
I0
sg89
g90
sg82
I3
sg91
F4.9242730000000003
sg92
Nsbag1
(g78
g3
NtRp97
(dp98
g88
I0
sg89
g90
sg82
I4
sg91
F4.9242730000000003
sg92
Nsbag1
(g78
g3
NtRp99
(dp100
g88
F20.221410795465747
sg89
S'OUTPUT'
p101
sg82
I5
sg91
F8.3490694210633833
sg92
S'exp'
p102
sbag1
(g78
g3
NtRp103
(dp104
g88
F-2.5395202162955575
sg89
S'HIDDEN'
p105
sg82
I6
sg91
F-5.7147895082541851
sg92
g102
sbag1
(g78
g3
NtRp106
(dp107
g88
F-3.4522460007938509
sg89
g105
sg82
I7
sg91
F7.9845485136095249
sg92
g102
sbasb.