ccopy_reg
_reconstructor
p1
(cneat.chromosome
Chromosome
p2
c__builtin__
object
p3
NtRp4
(dp5
S'species_id'
p6
I217
sS'_connection_genes'
p7
(dp8
(I16
I9
tp9
g1
(cneat.genome
ConnectionGene
p10
g3
NtRp11
(dp12
S'_ConnectionGene__weight'
p13
F-3.8780848100006766
sS'_ConnectionGene__in'
p14
I16
sS'_ConnectionGene__enabled'
p15
I01
sS'_ConnectionGene__out'
p16
I9
sS'_ConnectionGene__innov_number'
p17
I181
sbs(I17
I20
tp18
g1
(g10
g3
NtRp19
(dp20
g13
F14.416330252203021
sg14
I17
sg15
I01
sg16
I20
sg17
I294
sbs(I20
I7
tp21
g1
(g10
g3
NtRp22
(dp23
g13
F34.829754681510643
sg14
I20
sg15
I01
sg16
I7
sg17
I275
sbs(I18
I19
tp24
g1
(g10
g3
NtRp25
(dp26
g13
F-9.0594353323488956
sg14
I18
sg15
I01
sg16
I19
sg17
I279
sbs(I21
I6
tp27
g1
(g10
g3
NtRp28
(dp29
g13
F-17.717613881139521
sg14
I21
sg15
I01
sg16
I6
sg17
I317
sbs(I8
I5
tp30
g1
(g10
g3
NtRp31
(dp32
g13
F-43.189498108297606
sg14
I8
sg15
I01
sg16
I5
sg17
I23
sbs(I10
I7
tp33
g1
(g10
g3
NtRp34
(dp35
g13
F-25.337204902945285
sg14
I10
sg15
I01
sg16
I7
sg17
I64
sbs(I12
I17
tp36
g1
(g10
g3
NtRp37
(dp38
g13
F8.5019031035275354
sg14
I12
sg15
I01
sg16
I17
sg17
I221
sbs(I13
I20
tp39
g1
(g10
g3
NtRp40
(dp41
g13
F4.889569698235297
sg14
I13
sg15
I01
sg16
I20
sg17
I296
sbs(I4
I5
tp42
g1
(g10
g3
NtRp43
(dp44
g13
F43.229953297814525
sg14
I4
sg15
I01
sg16
I5
sg17
I4
sbs(I19
I13
tp45
g1
(g10
g3
NtRp46
(dp47
g13
F-4.0487693513061149
sg14
I19
sg15
I01
sg16
I13
sg17
I271
sbs(I17
I13
tp48
g1
(g10
g3
NtRp49
(dp50
g13
F3.2057710180606431
sg14
I17
sg15
I01
sg16
I13
sg17
I200
sbs(I20
I14
tp51
g1
(g10
g3
NtRp52
(dp53
g13
F-4.6127141043489868
sg14
I20
sg15
I01
sg16
I14
sg17
I303
sbs(I18
I10
tp54
g1
(g10
g3
NtRp55
(dp56
g13
F0.78204477306333642
sg14
I18
sg15
I01
sg16
I10
sg17
I222
sbs(I21
I15
tp57
g1
(g10
g3
NtRp58
(dp59
g13
F0.56560021071003463
sg14
I21
sg15
I01
sg16
I15
sg17
I340
sbs(I8
I12
tp60
g1
(g10
g3
NtRp61
(dp62
g13
F-21.296106674290087
sg14
I8
sg15
I01
sg16
I12
sg17
I95
sbs(I9
I9
tp63
g1
(g10
g3
NtRp64
(dp65
g13
F20.699089017282052
sg14
I9
sg15
I01
sg16
I9
sg17
I45
sbs(I10
I14
tp66
g1
(g10
g3
NtRp67
(dp68
g13
F-12.296419738050709
sg14
I10
sg15
I01
sg16
I14
sg17
I137
sbs(I8
I18
tp69
g1
(g10
g3
NtRp70
(dp71
g13
F-9.1532444567701745
sg14
I8
sg15
I01
sg16
I18
sg17
I238
sbs(I11
I15
tp72
g1
(g10
g3
NtRp73
(dp74
g13
F-19.234854999626794
sg14
I11
sg15
I01
sg16
I15
sg17
I177
sbs(I9
I19
tp75
g1
(g10
g3
NtRp76
(dp77
g13
F2.5286023020555377
sg14
I9
sg15
I01
sg16
I19
sg17
I259
sbs(I14
I8
tp78
g1
(g10
g3
NtRp79
(dp80
g13
F-16.880595512799943
sg14
I14
sg15
I01
sg16
I8
sg17
I120
sbs(I12
I8
tp81
g1
(g10
g3
NtRp82
(dp83
g13
F-43.787035689815276
sg14
I12
sg15
I01
sg16
I8
sg17
I86
sbs(I1
I21
tp84
g1
(g10
g3
NtRp85
(dp86
g13
F-4.9336016252468724
sg14
I1
sg15
I01
sg16
I21
sg17
I351
sbs(I15
I13
tp87
g1
(g10
g3
NtRp88
(dp89
g13
F-3.6834975006865927
sg14
I15
sg15
I01
sg16
I13
sg17
I187
sbs(I13
I13
tp90
g1
(g10
g3
NtRp91
(dp92
g13
F-24.221671325418711
sg14
I13
sg15
I01
sg16
I13
sg17
I125
sbs(I2
I18
tp93
g1
(g10
g3
NtRp94
(dp95
g13
F5.1409755191803264
sg14
I2
sg15
I01
sg16
I18
sg17
I261
sbs(I3
I11
tp96
g1
(g10
g3
NtRp97
(dp98
g13
F-27.15960644480111
sg14
I3
sg15
I01
sg16
I11
sg17
I63
sbs(I1
I15
tp99
g1
(g10
g3
NtRp100
(dp101
g13
F21.394348470271098
sg14
I1
sg15
I01
sg16
I15
sg17
I152
sbs(I4
I12
tp102
g1
(g10
g3
NtRp103
(dp104
g13
F-28.006753340555612
sg14
I4
sg15
I01
sg16
I12
sg17
I88
sbs(I2
I12
tp105
g1
(g10
g3
NtRp106
(dp107
g13
F-20.15783734369742
sg14
I2
sg15
I01
sg16
I12
sg17
I92
sbs(I3
I17
tp108
g1
(g10
g3
NtRp109
(dp110
g13
F36.283973671016369
sg14
I3
sg15
I01
sg16
I17
sg17
I203
sbs(I16
I7
tp111
g1
(g10
g3
NtRp112
(dp113
g13
F-15.529830831654353
sg14
I16
sg15
I01
sg16
I7
sg17
I183
sbs(I6
I14
tp114
g1
(g10
g3
NtRp115
(dp116
g13
F-42.150730779875211
sg14
I6
sg15
I01
sg16
I14
sg17
I136
sbs(I19
I18
tp117
g1
(g10
g3
NtRp118
(dp119
g13
F14.2080313176419
sg14
I19
sg15
I01
sg16
I18
sg17
I277
sbs(I17
I6
tp120
g1
(g10
g3
NtRp121
(dp122
g13
F-5.403610999897495
sg14
I17
sg15
I01
sg16
I6
sg17
I192
sbs(I7
I15
tp123
g1
(g10
g3
NtRp124
(dp125
g13
F-0.75823402555545849
sg14
I7
sg15
I01
sg16
I15
sg17
I156
sbs(I20
I21
tp126
g1
(g10
g3
NtRp127
(dp128
g13
F-5.2543107888073894
sg14
I20
sg15
I01
sg16
I21
sg17
I339
sbs(I18
I5
tp129
g1
(g10
g3
NtRp130
(dp131
g13
F-13.841401569914355
sg14
I18
sg15
I01
sg16
I5
sg17
I240
sbs(I21
I8
tp132
g1
(g10
g3
NtRp133
(dp134
g13
F-1.1719128735204418
sg14
I21
sg15
I01
sg16
I8
sg17
I311
sbs(I10
I9
tp135
g1
(g10
g3
NtRp136
(dp137
g13
F25.428466442631496
sg14
I10
sg15
I01
sg16
I9
sg17
I52
sbs(I9
I20
tp138
g1
(g10
g3
NtRp139
(dp140
g13
F-13.266783370805916
sg14
I9
sg15
I01
sg16
I20
sg17
I274
sbs(I14
I19
tp141
g1
(g10
g3
NtRp142
(dp143
g13
F-8.3864007006434029
sg14
I14
sg15
I01
sg16
I19
sg17
I280
sbs(I12
I7
tp144
g1
(g10
g3
NtRp145
(dp146
g13
F3.8961100889989253
sg14
I12
sg15
I01
sg16
I7
sg17
I81
sbs(I10
I19
tp147
g1
(g10
g3
NtRp148
(dp149
g13
F-29.339229549987209
sg14
I10
sg15
I01
sg16
I19
sg17
I273
sbs(I15
I10
tp150
g1
(g10
g3
NtRp151
(dp152
g13
F-10.059061925942292
sg14
I15
sg15
I01
sg16
I10
sg17
I151
sbs(I13
I6
tp153
g1
(g10
g3
NtRp154
(dp155
g13
F-27.458059576051554
sg14
I13
sg15
I01
sg16
I6
sg17
I117
sbs(I4
I11
tp156
g1
(g10
g3
NtRp157
(dp158
g13
F49.073281865073525
sg14
I4
sg15
I01
sg16
I11
sg17
I68
sbs(I2
I7
tp159
g1
(g10
g3
NtRp160
(dp161
g13
F-25.920942911294741
sg14
I2
sg15
I01
sg16
I7
sg17
I21
sbs(I5
I10
tp162
g1
(g10
g3
NtRp163
(dp164
g13
F46.856865529998416
sg14
I5
sg15
I01
sg16
I10
sg17
I53
sbs(I4
I17
tp165
g1
(g10
g3
NtRp166
(dp167
g13
F-12.973795903826282
sg14
I4
sg15
I01
sg16
I17
sg17
I224
sbs(I5
I20
tp168
g1
(g10
g3
NtRp169
(dp170
g13
F2.4497050313568791
sg14
I5
sg15
I01
sg16
I20
sg17
I307
sbs(I16
I20
tp171
g1
(g10
g3
NtRp172
(dp173
g13
F-4.6607608120774326
sg14
I16
sg15
I01
sg16
I20
sg17
I293
sbs(I21
I17
tp174
g1
(g10
g3
NtRp175
(dp176
g13
F8.093247364794049
sg14
I21
sg15
I01
sg16
I17
sg17
I332
sbs(I17
I17
tp177
g1
(g10
g3
NtRp178
(dp179
g13
F0.30359053940626857
sg14
I17
sg15
I01
sg16
I17
sg17
I213
sbs(I15
I19
tp180
g1
(g10
g3
NtRp181
(dp182
g13
F3.1009737106503987
sg14
I15
sg15
I01
sg16
I19
sg17
I288
sbs(I11
I19
tp183
g1
(g10
g3
NtRp184
(dp185
g13
F12.102157055684559
sg14
I11
sg15
I01
sg16
I19
sg17
I265
sbs(I12
I20
tp186
g1
(g10
g3
NtRp187
(dp188
g13
F-10.879858770814709
sg14
I12
sg15
I01
sg16
I20
sg17
I309
sbs(I16
I11
tp189
g1
(g10
g3
NtRp190
(dp191
g13
F13.988686540662524
sg14
I16
sg15
I01
sg16
I11
sg17
I154
sbs(I6
I18
tp192
g1
(g10
g3
NtRp193
(dp194
g13
F-9.9704752828769934
sg14
I6
sg15
I01
sg16
I18
sg17
I246
sbs(I19
I6
tp195
g1
(g10
g3
NtRp196
(dp197
g13
F5.2412521116812512
sg14
I19
sg15
I01
sg16
I6
sg17
I249
sbs(I17
I10
tp198
g1
(g10
g3
NtRp199
(dp200
g13
F2.4533488238560479
sg14
I17
sg15
I01
sg16
I10
sg17
I159
sbs(I18
I17
tp201
g1
(g10
g3
NtRp202
(dp203
g13
F-29.851670530644888
sg14
I18
sg15
I01
sg16
I17
sg17
I247
sbs(I8
I7
tp204
g1
(g10
g3
NtRp205
(dp206
g13
F-31.608445619991908
sg14
I8
sg15
I01
sg16
I7
sg17
I29
sbs(I9
I6
tp207
g1
(g10
g3
NtRp208
(dp209
g13
F-19.572920882061887
sg14
I9
sg15
I01
sg16
I6
sg17
I41
sbs(I10
I5
tp210
g1
(g10
g3
NtRp211
(dp212
g13
F-8.5969609852857474
sg14
I10
sg15
I01
sg16
I5
sg17
I47
sbs(I11
I8
tp213
g1
(g10
g3
NtRp214
(dp215
g13
F-1.0768395664150696
sg14
I11
sg15
I01
sg16
I8
sg17
I59
sbs(I14
I7
tp216
g1
(g10
g3
NtRp217
(dp218
g13
F20.308516904446268
sg14
I14
sg15
I01
sg16
I7
sg17
I129
sbs(I12
I19
tp219
g1
(g10
g3
NtRp220
(dp221
g13
F40.121802008336651
sg14
I12
sg15
I01
sg16
I19
sg17
I283
sbs(I1
I18
tp222
g1
(g10
g3
NtRp223
(dp224
g13
F-1.6367493108161746
sg14
I1
sg15
I01
sg16
I18
sg17
I219
sbs(I15
I6
tp225
g1
(g10
g3
NtRp226
(dp227
g13
F-4.1193873128741636
sg14
I15
sg15
I01
sg16
I6
sg17
I166
sbs(I13
I18
tp228
g1
(g10
g3
NtRp229
(dp230
g13
F-3.5132798209083766
sg14
I13
sg15
I01
sg16
I18
sg17
I214
sbs(I4
I7
tp231
g1
(g10
g3
NtRp232
(dp233
g13
F-7.9936100289755361
sg14
I4
sg15
I01
sg16
I7
sg17
I18
sbs(I5
I6
tp234
g1
(g10
g3
NtRp235
(dp236
g13
F-1.261491534098315
sg14
I5
sg15
I01
sg16
I6
sg17
I14
sbs(I6
I21
tp237
g1
(g10
g3
NtRp238
(dp239
g13
F-3.6148266904261854
sg14
I6
sg15
I01
sg16
I21
sg17
I333
sbs(I19
I15
tp240
g1
(g10
g3
NtRp241
(dp242
g13
F-5.3965496016970969
sg14
I19
sg15
I01
sg16
I15
sg17
I264
sbs(I7
I16
tp243
g1
(g10
g3
NtRp244
(dp245
g13
F21.548041288819991
sg14
I7
sg15
I01
sg16
I16
sg17
I176
sbs(I20
I8
tp246
g1
(g10
g3
NtRp247
(dp248
g13
F11.737303836842276
sg14
I20
sg15
I01
sg16
I8
sg17
I322
sbs(I18
I8
tp249
g1
(g10
g3
NtRp250
(dp251
g13
F-22.273849241682154
sg14
I18
sg15
I01
sg16
I8
sg17
I217
sbs(I21
I13
tp252
g1
(g10
g3
NtRp253
(dp254
g13
F-7.1677851566239559
sg14
I21
sg15
I01
sg16
I13
sg17
I325
sbs(I8
I14
tp255
g1
(g10
g3
NtRp256
(dp257
g13
F-41.479323353315529
sg14
I8
sg15
I01
sg16
I14
sg17
I121
sbs(I9
I15
tp258
g1
(g10
g3
NtRp259
(dp260
g13
F-6.5869230943465542
sg14
I9
sg15
I01
sg16
I15
sg17
I149
sbs(I10
I12
tp261
g1
(g10
g3
NtRp262
(dp263
g13
F31.634833605820894
sg14
I10
sg15
I01
sg16
I12
sg17
I82
sbs(I8
I20
tp264
g1
(g10
g3
NtRp265
(dp266
g13
F-13.942382446590223
sg14
I8
sg15
I01
sg16
I20
sg17
I326
sbs(I9
I17
tp267
g1
(g10
g3
NtRp268
(dp269
g13
F2.568350409645324
sg14
I9
sg15
I01
sg16
I17
sg17
I231
sbs(I14
I14
tp270
g1
(g10
g3
NtRp271
(dp272
g13
F-1.4710452153766331
sg14
I14
sg15
I01
sg16
I14
sg17
I144
sbs(I12
I10
tp273
g1
(g10
g3
NtRp274
(dp275
g13
F25.991590767917639
sg14
I12
sg15
I01
sg16
I10
sg17
I87
sbs(I15
I15
tp276
g1
(g10
g3
NtRp277
(dp278
g13
F13.62334334180648
sg14
I15
sg15
I01
sg16
I15
sg17
I145
sbs(I13
I11
tp279
g1
(g10
g3
NtRp280
(dp281
g13
F17.76116387412058
sg14
I13
sg15
I01
sg16
I11
sg17
I98
sbs(I2
I16
tp282
g1
(g10
g3
NtRp283
(dp284
g13
F16.915515630967182
sg14
I2
sg15
I01
sg16
I16
sg17
I188
sbs(I3
I13
tp285
g1
(g10
g3
NtRp286
(dp287
g13
F-30.237068981089561
sg14
I3
sg15
I01
sg16
I13
sg17
I111
sbs(I1
I13
tp288
g1
(g10
g3
NtRp289
(dp290
g13
F16.24373170460921
sg14
I1
sg15
I01
sg16
I13
sg17
I112
sbs(I4
I14
tp291
g1
(g10
g3
NtRp292
(dp293
g13
F3.3094769641955306
sg14
I4
sg15
I01
sg16
I14
sg17
I119
sbs(I2
I10
tp294
g1
(g10
g3
NtRp295
(dp296
g13
F-44.531925040795493
sg14
I2
sg15
I01
sg16
I10
sg17
I65
sbs(I5
I15
tp297
g1
(g10
g3
NtRp298
(dp299
g13
F6.7465561455347505
sg14
I5
sg15
I01
sg16
I15
sg17
I167
sbs(I3
I19
tp300
g1
(g10
g3
NtRp301
(dp302
g13
F-5.0612804704257215
sg14
I3
sg15
I01
sg16
I19
sg17
I270
sbs(I6
I12
tp303
g1
(g10
g3
NtRp304
(dp305
g13
F6.5263782723527681
sg14
I6
sg15
I01
sg16
I12
sg17
I78
sbs(I4
I20
tp306
g1
(g10
g3
NtRp307
(dp308
g13
F3.5420376015510695
sg14
I4
sg15
I01
sg16
I20
sg17
I290
sbs(I19
I20
tp309
g1
(g10
g3
NtRp310
(dp311
g13
F17.249296776593216
sg14
I19
sg15
I01
sg16
I20
sg17
I308
sbs(I7
I9
tp312
g1
(g10
g3
NtRp313
(dp314
g13
F26.385213836122919
sg14
I7
sg15
I01
sg16
I9
sg17
I42
sbs(I11
I6
tp315
g1
(g10
g3
NtRp316
(dp317
g13
F-37.40009119232672
sg14
I11
sg15
I01
sg16
I6
sg17
I69
sbs(I14
I17
tp318
g1
(g10
g3
NtRp319
(dp320
g13
F-11.511256843362183
sg14
I14
sg15
I01
sg16
I17
sg17
I209
sbs(I10
I17
tp321
g1
(g10
g3
NtRp322
(dp323
g13
F16.147655504257713
sg14
I10
sg15
I01
sg16
I17
sg17
I172
sbs(I15
I20
tp324
g1
(g10
g3
NtRp325
(dp326
g13
F-21.994680970385829
sg14
I15
sg15
I01
sg16
I20
sg17
I313
sbs(I1
I6
tp327
g1
(g10
g3
NtRp328
(dp329
g13
F49.29687819362929
sg14
I1
sg15
I01
sg16
I6
sg17
I8
sbs(I2
I5
tp330
g1
(g10
g3
NtRp331
(dp332
g13
F0.47799318719532025
sg14
I2
sg15
I01
sg16
I5
sg17
I2
sbs(I5
I8
tp333
g1
(g10
g3
NtRp334
(dp335
g13
F6.219598987783459
sg14
I5
sg15
I01
sg16
I8
sg17
I22
sbs(I6
I7
tp336
g1
(g10
g3
NtRp337
(dp338
g13
F-8.1629376231779958
sg14
I6
sg15
I01
sg16
I7
sg17
I16
sbs(I4
I19
tp339
g1
(g10
g3
NtRp340
(dp341
g13
F-34.984963484212528
sg14
I4
sg15
I01
sg16
I19
sg17
I244
sbs(I7
I6
tp342
g1
(g10
g3
NtRp343
(dp344
g13
F21.157444394756848
sg14
I7
sg15
I01
sg16
I6
sg17
I17
sbs(I5
I18
tp345
g1
(g10
g3
NtRp346
(dp347
g13
F-7.0758574565926811
sg14
I5
sg15
I01
sg16
I18
sg17
I216
sbs(I18
I20
tp348
g1
(g10
g3
NtRp349
(dp350
g13
F-20.503756983316322
sg14
I18
sg15
I01
sg16
I20
sg17
I323
sbs(I11
I21
tp351
g1
(g10
g3
NtRp352
(dp353
g13
F-1.800292594287966
sg14
I11
sg15
I01
sg16
I21
sg17
I310
sbs(I16
I13
tp354
g1
(g10
g3
NtRp355
(dp356
g13
F-9.0705327650263303
sg14
I16
sg15
I01
sg16
I13
sg17
I160
sbs(I6
I16
tp357
g1
(g10
g3
NtRp358
(dp359
g13
F24.07604376855144
sg14
I6
sg15
I01
sg16
I16
sg17
I162
sbs(I19
I8
tp360
g1
(g10
g3
NtRp361
(dp362
g13
F-15.11149107617608
sg14
I19
sg15
I01
sg16
I8
sg17
I263
sbs(I17
I8
tp363
g1
(g10
g3
NtRp364
(dp365
g13
F-24.364477599099096
sg14
I17
sg15
I01
sg16
I8
sg17
I173
sbs(I7
I21
tp366
g1
(g10
g3
NtRp367
(dp368
g13
F1.0400370222331907
sg14
I7
sg15
I01
sg16
I21
sg17
I336
sbs(I18
I15
tp369
g1
(g10
g3
NtRp370
(dp371
g13
F-29.092449420788984
sg14
I18
sg15
I01
sg16
I15
sg17
I250
sbs(I8
I9
tp372
g1
(g10
g3
NtRp373
(dp374
g13
F5.1027737981796379
sg14
I8
sg15
I01
sg16
I9
sg17
I35
sbs(I11
I10
tp375
g1
(g10
g3
NtRp376
(dp377
g13
F0.9053833690987978
sg14
I11
sg15
I01
sg16
I10
sg17
I74
sbs(I14
I5
tp378
g1
(g10
g3
NtRp379
(dp380
g13
F45.129897800372603
sg14
I14
sg15
I01
sg16
I5
sg17
I102
sbs(I12
I13
tp381
g1
(g10
g3
NtRp382
(dp383
g13
F24.500694836478711
sg14
I12
sg15
I01
sg16
I13
sg17
I100
sbs(I1
I16
tp384
g1
(g10
g3
NtRp385
(dp386
g13
F-8.8327853907420071
sg14
I1
sg15
I01
sg16
I16
sg17
I195
sbs(I13
I16
tp387
g1
(g10
g3
NtRp388
(dp389
g13
F30.458685643077548
sg14
I13
sg15
I01
sg16
I16
sg17
I186
sbs(I3
I6
tp390
g1
(g10
g3
NtRp391
(dp392
g13
F11.888542807907564
sg14
I3
sg15
I01
sg16
I6
sg17
I6
sbs(I1
I10
tp393
g1
(g10
g3
NtRp394
(dp395
g13
F5.914495211714395
sg14
I1
sg15
I01
sg16
I10
sg17
I48
sbs(I6
I11
tp396
g1
(g10
g3
NtRp397
(dp398
g13
F-46.288456410934245
sg14
I6
sg15
I01
sg16
I11
sg17
I70
sbs(I19
I17
tp399
g1
(g10
g3
NtRp400
(dp401
g13
F-20.211996540448098
sg14
I19
sg15
I01
sg16
I17
sg17
I278
sbs(I7
I18
tp402
g1
(g10
g3
NtRp403
(dp404
g13
F-8.3387099798017879
sg14
I7
sg15
I01
sg16
I18
sg17
I268
sbs(I20
I10
tp405
g1
(g10
g3
NtRp406
(dp407
g13
F20.32986905635196
sg14
I20
sg15
I01
sg16
I10
sg17
I301
sbs(I18
I6
tp408
g1
(g10
g3
NtRp409
(dp410
g13
F9.2646398365044806
sg14
I18
sg15
I01
sg16
I6
sg17
I236
sbs(I21
I11
tp411
g1
(g10
g3
NtRp412
(dp413
g13
F-1.6323940721350874
sg14
I21
sg15
I01
sg16
I11
sg17
I315
sbs(I9
I13
tp414
g1
(g10
g3
NtRp415
(dp416
g13
F17.418150361267426
sg14
I9
sg15
I01
sg16
I13
sg17
I118
sbs(I10
I10
tp417
g1
(g10
g3
NtRp418
(dp419
g13
F47.534545673179501
sg14
I10
sg15
I01
sg16
I10
sg17
I60
sbs(I14
I12
tp420
g1
(g10
g3
NtRp421
(dp422
g13
F-5.8293245901205122
sg14
I14
sg15
I01
sg16
I12
sg17
I135
sbs(I10
I20
tp423
g1
(g10
g3
NtRp424
(dp425
g13
F-20.894688341360123
sg14
I10
sg15
I01
sg16
I20
sg17
I299
sbs(I15
I9
tp426
g1
(g10
g3
NtRp427
(dp428
g13
F1.7428082332721664
sg14
I15
sg15
I01
sg16
I9
sg17
I148
sbs(I13
I9
tp429
g1
(g10
g3
NtRp430
(dp431
g13
F42.87052631842915
sg14
I13
sg15
I01
sg16
I9
sg17
I116
sbs(I3
I15
tp432
g1
(g10
g3
NtRp433
(dp434
g13
F4.4600317358301504
sg14
I3
sg15
I01
sg16
I15
sg17
I178
sbs(I4
I8
tp435
g1
(g10
g3
NtRp436
(dp437
g13
F24.114250412032753
sg14
I4
sg15
I01
sg16
I8
sg17
I24
sbs(I2
I8
tp438
g1
(g10
g3
NtRp439
(dp440
g13
F26.138755765764522
sg14
I2
sg15
I01
sg16
I8
sg17
I27
sbs(I5
I13
tp441
g1
(g10
g3
NtRp442
(dp443
g13
F11.445556531792278
sg14
I5
sg15
I01
sg16
I13
sg17
I93
sbs(I3
I21
tp444
g1
(g10
g3
NtRp445
(dp446
g13
F-6.9465884119625541
sg14
I3
sg15
I01
sg16
I21
sg17
I367
sbs(I7
I11
tp447
g1
(g10
g3
NtRp448
(dp449
g13
F-12.544976957465675
sg14
I7
sg15
I01
sg16
I11
sg17
I66
sbs(I20
I17
tp450
g1
(g10
g3
NtRp451
(dp452
g13
F-4.9085387037609509
sg14
I20
sg15
I01
sg16
I17
sg17
I304
sbs(I16
I17
tp453
g1
(g10
g3
NtRp454
(dp455
g13
F22.545451313582614
sg14
I16
sg15
I01
sg16
I17
sg17
I201
sbs(I21
I20
tp456
g1
(g10
g3
NtRp457
(dp458
g13
F-4.1694873187216013
sg14
I21
sg15
I01
sg16
I20
sg17
I349
sbs(I6
I5
tp459
g1
(g10
g3
NtRp460
(dp461
g13
F11.07061827848351
sg14
I6
sg15
I01
sg16
I5
sg17
I7
sbs(I5
I16
tp462
g1
(g10
g3
NtRp463
(dp464
g13
F-20.73830466076063
sg14
I5
sg15
I01
sg16
I16
sg17
I153
sbs(I16
I8
tp465
g1
(g10
g3
NtRp466
(dp467
g13
F-5.7859333410600131
sg14
I16
sg15
I01
sg16
I8
sg17
I157
sbs(I19
I5
tp468
g1
(g10
g3
NtRp469
(dp470
g13
F8.9170194728794847
sg14
I19
sg15
I01
sg16
I5
sg17
I282
sbs(I17
I21
tp471
g1
(g10
g3
NtRp472
(dp473
g13
F-11.734870925491068
sg14
I17
sg15
I01
sg16
I21
sg17
I346
sbs(I20
I6
tp474
g1
(g10
g3
NtRp475
(dp476
g13
F-0.29716354201264439
sg14
I20
sg15
I01
sg16
I6
sg17
I305
sbs(I18
I18
tp477
g1
(g10
g3
NtRp478
(dp479
g13
F6.8800935118920341
sg14
I18
sg15
I01
sg16
I18
sg17
I252
sbs(I21
I7
tp480
g1
(g10
g3
NtRp481
(dp482
g13
F-7.146900286249104
sg14
I21
sg15
I01
sg16
I7
sg17
I330
sbs(I10
I6
tp483
g1
(g10
g3
NtRp484
(dp485
g13
F-48.067979824285622
sg14
I10
sg15
I01
sg16
I6
sg17
I50
sbs(I12
I16
tp486
g1
(g10
g3
NtRp487
(dp488
g13
F-27.985590058878021
sg14
I12
sg15
I01
sg16
I16
sg17
I174
sbs(I15
I5
tp489
g1
(g10
g3
NtRp490
(dp491
g13
F0.9270363082457429
sg14
I15
sg15
I01
sg16
I5
sg17
I164
sbs(I13
I21
tp492
g1
(g10
g3
NtRp493
(dp494
g13
F-4.1365099578176814
sg14
I13
sg15
I01
sg16
I21
sg17
I355
sbs(I16
I15
tp495
g1
(g10
g3
NtRp496
(dp497
g13
F19.812568143560124
sg14
I16
sg15
I01
sg16
I15
sg17
I161
sbs(I19
I10
tp498
g1
(g10
g3
NtRp499
(dp500
g13
F22.607267116784261
sg14
I19
sg15
I01
sg16
I10
sg17
I276
sbs(I17
I14
tp501
g1
(g10
g3
NtRp502
(dp503
g13
F3.4478819619170693
sg14
I17
sg15
I01
sg16
I14
sg17
I202
sbs(I20
I13
tp504
g1
(g10
g3
NtRp505
(dp506
g13
F-3.4068781559593355
sg14
I20
sg15
I01
sg16
I13
sg17
I297
sbs(I18
I13
tp507
g1
(g10
g3
NtRp508
(dp509
g13
F-0.21493471158910715
sg14
I18
sg15
I01
sg16
I13
sg17
I235
sbs(I8
I11
tp510
g1
(g10
g3
NtRp511
(dp512
g13
F-40.362923135401644
sg14
I8
sg15
I01
sg16
I11
sg17
I56
sbs(I9
I10
tp513
g1
(g10
g3
NtRp514
(dp515
g13
F-33.393376532468821
sg14
I9
sg15
I01
sg16
I10
sg17
I62
sbs(I8
I17
tp516
g1
(g10
g3
NtRp517
(dp518
g13
F19.170953024903685
sg14
I8
sg15
I01
sg16
I17
sg17
I158
sbs(I11
I12
tp519
g1
(g10
g3
NtRp520
(dp521
g13
F-3.8423270871229458
sg14
I11
sg15
I01
sg16
I12
sg17
I96
sbs(I14
I11
tp522
g1
(g10
g3
NtRp523
(dp524
g13
F-0.65082680209842714
sg14
I14
sg15
I01
sg16
I11
sg17
I134
sbs(I12
I15
tp525
g1
(g10
g3
NtRp526
(dp527
g13
F-7.5276442080914254
sg14
I12
sg15
I01
sg16
I15
sg17
I142
sbs(I13
I14
tp528
g1
(g10
g3
NtRp529
(dp530
g13
F-14.366882097363552
sg14
I13
sg15
I01
sg16
I14
sg17
I128
sbs(I2
I21
tp531
g1
(g10
g3
NtRp532
(dp533
g13
F4.9525881104972864
sg14
I2
sg15
I01
sg16
I21
sg17
I359
sbs(I3
I8
tp534
g1
(g10
g3
NtRp535
(dp536
g13
F12.826972708404945
sg14
I3
sg15
I01
sg16
I8
sg17
I31
sbs(I1
I8
tp537
g1
(g10
g3
NtRp538
(dp539
g13
F6.5692013511186591
sg14
I1
sg15
I01
sg16
I8
sg17
I26
sbs(I2
I15
tp540
g1
(g10
g3
NtRp541
(dp542
g13
F13.583831574508638
sg14
I2
sg15
I01
sg16
I15
sg17
I189
sbs(I16
I6
tp543
g1
(g10
g3
NtRp544
(dp545
g13
F10.052918631372552
sg14
I16
sg15
I01
sg16
I6
sg17
I182
sbs(I6
I9
tp546
g1
(g10
g3
NtRp547
(dp548
g13
F48.659023328861302
sg14
I6
sg15
I01
sg16
I9
sg17
I39
sbs(I19
I19
tp549
g1
(g10
g3
NtRp550
(dp551
g13
F-12.278308576701949
sg14
I19
sg15
I01
sg16
I19
sg17
I287
sbs(I17
I7
tp552
g1
(g10
g3
NtRp553
(dp554
g13
F-12.084145713918002
sg14
I17
sg15
I01
sg16
I7
sg17
I206
sbs(I7
I12
tp555
g1
(g10
g3
NtRp556
(dp557
g13
F17.230626088979935
sg14
I7
sg15
I01
sg16
I12
sg17
I115
sbs(I20
I20
tp558
g1
(g10
g3
NtRp559
(dp560
g13
F-4.1281040198587586
sg14
I20
sg15
I01
sg16
I20
sg17
I295
sbs(I21
I9
tp561
g1
(g10
g3
NtRp562
(dp563
g13
F-7.042737509863163
sg14
I21
sg15
I01
sg16
I9
sg17
I352
sbs(I10
I8
tp564
g1
(g10
g3
NtRp565
(dp566
g13
F30.89681703027404
sg14
I10
sg15
I01
sg16
I8
sg17
I55
sbs(I11
I5
tp567
g1
(g10
g3
NtRp568
(dp569
g13
F11.851110921662263
sg14
I11
sg15
I01
sg16
I5
sg17
I57
sbs(I9
I21
tp570
g1
(g10
g3
NtRp571
(dp572
g13
F9.2504344360653477
sg14
I9
sg15
I01
sg16
I21
sg17
I353
sbs(I14
I18
tp573
g1
(g10
g3
NtRp574
(dp575
g13
F16.640638674744803
sg14
I14
sg15
I01
sg16
I18
sg17
I253
sbs(I12
I6
tp576
g1
(g10
g3
NtRp577
(dp578
g13
F24.353086566722332
sg14
I12
sg15
I01
sg16
I6
sg17
I90
sbs(I10
I18
tp579
g1
(g10
g3
NtRp580
(dp581
g13
F38.0284553350794
sg14
I10
sg15
I01
sg16
I18
sg17
I237
sbs(I15
I11
tp582
g1
(g10
g3
NtRp583
(dp584
g13
F16.767748521677628
sg14
I15
sg15
I01
sg16
I11
sg17
I143
sbs(I13
I7
tp585
g1
(g10
g3
NtRp586
(dp587
g13
F12.048466926841577
sg14
I13
sg15
I01
sg16
I7
sg17
I114
sbs(I4
I10
tp588
g1
(g10
g3
NtRp589
(dp590
g13
F34.164534749106792
sg14
I4
sg15
I01
sg16
I10
sg17
I61
sbs(I2
I6
tp591
g1
(g10
g3
NtRp592
(dp593
g13
F12.36015066047165
sg14
I2
sg15
I01
sg16
I6
sg17
I10
sbs(I5
I11
tp594
g1
(g10
g3
NtRp595
(dp596
g13
F-39.86499311076976
sg14
I5
sg15
I01
sg16
I11
sg17
I73
sbs(I4
I16
tp597
g1
(g10
g3
NtRp598
(dp599
g13
F3.4520609627972263
sg14
I4
sg15
I01
sg16
I16
sg17
I228
sbs(I7
I5
tp600
g1
(g10
g3
NtRp601
(dp602
g13
F-8.741449786621164
sg14
I7
sg15
I01
sg16
I5
sg17
I12
sbs(I5
I21
tp603
g1
(g10
g3
NtRp604
(dp605
g13
F-6.5466394033358313
sg14
I5
sg15
I01
sg16
I21
sg17
I343
sbs(I20
I19
tp606
g1
(g10
g3
NtRp607
(dp608
g13
F3.406133815962948
sg14
I20
sg15
I01
sg16
I19
sg17
I298
sbs(I16
I19
tp609
g1
(g10
g3
NtRp610
(dp611
g13
F2.3616460647355013
sg14
I16
sg15
I01
sg16
I19
sg17
I241
sbs(I21
I18
tp612
g1
(g10
g3
NtRp613
(dp614
g13
F-3.0988947188262506
sg14
I21
sg15
I01
sg16
I18
sg17
I342
sbs(I17
I18
tp615
g1
(g10
g3
NtRp616
(dp617
g13
F-22.623525178251018
sg14
I17
sg15
I01
sg16
I18
sg17
I232
sbs(I14
I21
tp618
g1
(g10
g3
NtRp619
(dp620
g13
F8.8925071156820668
sg14
I14
sg15
I01
sg16
I21
sg17
I331
sbs(I15
I16
tp621
g1
(g10
g3
NtRp622
(dp623
g13
F19.401955815983111
sg14
I15
sg15
I01
sg16
I16
sg17
I179
sbs(I11
I16
tp624
g1
(g10
g3
NtRp625
(dp626
g13
F-18.922666820321197
sg14
I11
sg15
I01
sg16
I16
sg17
I184
sbs(I16
I10
tp627
g1
(g10
g3
NtRp628
(dp629
g13
F-15.04802447287347
sg14
I16
sg15
I01
sg16
I10
sg17
I171
sbs(I19
I7
tp630
g1
(g10
g3
NtRp631
(dp632
g13
F5.9256260200250743
sg14
I19
sg15
I01
sg16
I7
sg17
I260
sbs(I17
I11
tp633
g1
(g10
g3
NtRp634
(dp635
g13
F5.1998834818351671
sg14
I17
sg15
I01
sg16
I11
sg17
I208
sbs(I18
I16
tp636
g1
(g10
g3
NtRp637
(dp638
g13
F-0.8100423721268859
sg14
I18
sg15
I01
sg16
I16
sg17
I255
sbs(I21
I5
tp639
g1
(g10
g3
NtRp640
(dp641
g13
F6.7256514046741183
sg14
I21
sg15
I01
sg16
I5
sg17
I321
sbs(I8
I6
tp642
g1
(g10
g3
NtRp643
(dp644
g13
F-14.050653768653705
sg14
I8
sg15
I01
sg16
I6
sg17
I25
sbs(I9
I7
tp645
g1
(g10
g3
NtRp646
(dp647
g13
F-7.9399450437193115
sg14
I9
sg15
I01
sg16
I7
sg17
I34
sbs(I11
I9
tp648
g1
(g10
g3
NtRp649
(dp650
g13
F-2.2411422002883672
sg14
I11
sg15
I01
sg16
I9
sg17
I67
sbs(I14
I6
tp651
g1
(g10
g3
NtRp652
(dp653
g13
F-32.796460502949678
sg14
I14
sg15
I01
sg16
I6
sg17
I130
sbs(I12
I18
tp654
g1
(g10
g3
NtRp655
(dp656
g13
F3.5225752394342331
sg14
I12
sg15
I01
sg16
I18
sg17
I233
sbs(I1
I19
tp657
g1
(g10
g3
NtRp658
(dp659
g13
F14.473877256356776
sg14
I1
sg15
I01
sg16
I19
sg17
I286
sbs(I15
I7
tp660
g1
(g10
g3
NtRp661
(dp662
g13
F-11.022735311713506
sg14
I15
sg15
I01
sg16
I7
sg17
I139
sbs(I13
I19
tp663
g1
(g10
g3
NtRp664
(dp665
g13
F-10.604490872264222
sg14
I13
sg15
I01
sg16
I19
sg17
I262
sbs(I3
I5
tp666
g1
(g10
g3
NtRp667
(dp668
g13
F50
sg14
I3
sg15
I01
sg16
I5
sg17
I3
sbs(I4
I6
tp669
g1
(g10
g3
NtRp670
(dp671
g13
F10.550800796517878
sg14
I4
sg15
I01
sg16
I6
sg17
I9
sbs(I5
I7
tp672
g1
(g10
g3
NtRp673
(dp674
g13
F-46.277008354673477
sg14
I5
sg15
I01
sg16
I7
sg17
I19
sbs(I6
I20
tp675
g1
(g10
g3
NtRp676
(dp677
g13
F0.42283264321871039
sg14
I6
sg15
I01
sg16
I20
sg17
I350
sbs(I19
I12
tp678
g1
(g10
g3
NtRp679
(dp680
g13
F24.358642816882451
sg14
I19
sg15
I01
sg16
I12
sg17
I267
sbs(I17
I12
tp681
g1
(g10
g3
NtRp682
(dp683
g13
F18.97585610740828
sg14
I17
sg15
I01
sg16
I12
sg17
I220
sbs(I7
I17
tp684
g1
(g10
g3
NtRp685
(dp686
g13
F33.061334597434552
sg14
I7
sg15
I01
sg16
I17
sg17
I196
sbs(I20
I15
tp687
g1
(g10
g3
NtRp688
(dp689
g13
F-6.8934727953122099
sg14
I20
sg15
I01
sg16
I15
sg17
I292
sbs(I18
I11
tp690
g1
(g10
g3
NtRp691
(dp692
g13
F32.955285126499732
sg14
I18
sg15
I01
sg16
I11
sg17
I251
sbs(I21
I14
tp693
g1
(g10
g3
NtRp694
(dp695
g13
F-5.3632870827829251
sg14
I21
sg15
I01
sg16
I14
sg17
I372
sbs(I8
I13
tp696
g1
(g10
g3
NtRp697
(dp698
g13
F-5.9556767557743999
sg14
I8
sg15
I01
sg16
I13
sg17
I110
sbs(I9
I8
tp699
g1
(g10
g3
NtRp700
(dp701
g13
F-11.022378780677009
sg14
I9
sg15
I01
sg16
I8
sg17
I38
sbs(I10
I15
tp702
g1
(g10
g3
NtRp703
(dp704
g13
F-5.3177347373765267
sg14
I10
sg15
I01
sg16
I15
sg17
I169
sbs(I8
I19
tp705
g1
(g10
g3
NtRp706
(dp707
g13
F22.001391882791424
sg14
I8
sg15
I01
sg16
I19
sg17
I248
sbs(I11
I14
tp708
g1
(g10
g3
NtRp709
(dp710
g13
F24.906717583827561
sg14
I11
sg15
I01
sg16
I14
sg17
I123
sbs(I9
I18
tp711
g1
(g10
g3
NtRp712
(dp713
g13
F1.7451010721092832
sg14
I9
sg15
I01
sg16
I18
sg17
I234
sbs(I14
I9
tp714
g1
(g10
g3
NtRp715
(dp716
g13
F-30.461716009245134
sg14
I14
sg15
I01
sg16
I9
sg17
I122
sbs(I12
I9
tp717
g1
(g10
g3
NtRp718
(dp719
g13
F23.798475815402703
sg14
I12
sg15
I01
sg16
I9
sg17
I83
sbs(I1
I20
tp720
g1
(g10
g3
NtRp721
(dp722
g13
F-16.586030710901404
sg14
I1
sg15
I01
sg16
I20
sg17
I334
sbs(I15
I12
tp723
g1
(g10
g3
NtRp724
(dp725
g13
F4.8326292724770239
sg14
I15
sg15
I01
sg16
I12
sg17
I146
sbs(I13
I12
tp726
g1
(g10
g3
NtRp727
(dp728
g13
F48.887616529691975
sg14
I13
sg15
I01
sg16
I12
sg17
I103
sbs(I2
I19
tp729
g1
(g10
g3
NtRp730
(dp731
g13
F-2.0632952255036479
sg14
I2
sg15
I01
sg16
I19
sg17
I291
sbs(I3
I10
tp732
g1
(g10
g3
NtRp733
(dp734
g13
F-14.982831119955828
sg14
I3
sg15
I01
sg16
I10
sg17
I54
sbs(I1
I14
tp735
g1
(g10
g3
NtRp736
(dp737
g13
F-37.713148695396157
sg14
I1
sg15
I01
sg16
I14
sg17
I133
sbs(I4
I13
tp738
g1
(g10
g3
NtRp739
(dp740
g13
F-28.361356953421065
sg14
I4
sg15
I01
sg16
I13
sg17
I107
sbs(I2
I13
tp741
g1
(g10
g3
NtRp742
(dp743
g13
F-19.434210500397477
sg14
I2
sg15
I01
sg16
I13
sg17
I99
sbs(I3
I16
tp744
g1
(g10
g3
NtRp745
(dp746
g13
F4.5668016214546716
sg14
I3
sg15
I01
sg16
I16
sg17
I175
sbs(I6
I15
tp747
g1
(g10
g3
NtRp748
(dp749
g13
F-2.0831904306166664
sg14
I6
sg15
I01
sg16
I15
sg17
I138
sbs(I19
I21
tp750
g1
(g10
g3
NtRp751
(dp752
g13
F6.1049956520464139
sg14
I19
sg15
I01
sg16
I21
sg17
I354
sbs(I17
I5
tp753
g1
(g10
g3
NtRp754
(dp755
g13
F-21.401719949654183
sg14
I17
sg15
I01
sg16
I5
sg17
I210
sbs(I7
I14
tp756
g1
(g10
g3
NtRp757
(dp758
g13
F14.782808625832551
sg14
I7
sg15
I01
sg16
I14
sg17
I132
sbs(I11
I7
tp759
g1
(g10
g3
NtRp760
(dp761
g13
F-33.885897772496754
sg14
I11
sg15
I01
sg16
I7
sg17
I77
sbs(I14
I16
tp762
g1
(g10
g3
NtRp763
(dp764
g13
F-2.9315761865761836
sg14
I14
sg15
I01
sg16
I16
sg17
I205
sbs(I10
I16
tp765
g1
(g10
g3
NtRp766
(dp767
g13
F16.234344080614932
sg14
I10
sg15
I01
sg16
I16
sg17
I165
sbs(I15
I21
tp768
g1
(g10
g3
NtRp769
(dp770
g13
F-1.2860364884616957
sg14
I15
sg15
I01
sg16
I21
sg17
I324
sbs(I13
I5
tp771
g1
(g10
g3
NtRp772
(dp773
g13
F-18.513930903487026
sg14
I13
sg15
I01
sg16
I5
sg17
I94
sbs(I1
I7
tp774
g1
(g10
g3
NtRp775
(dp776
g13
F23.139078900789464
sg14
I1
sg15
I01
sg16
I7
sg17
I15
sbs(I5
I9
tp777
g1
(g10
g3
NtRp778
(dp779
g13
F-3.2364653704463775
sg14
I5
sg15
I01
sg16
I9
sg17
I44
sbs(I6
I6
tp780
g1
(g10
g3
NtRp781
(dp782
g13
F-4.7642826641651013
sg14
I6
sg15
I01
sg16
I6
sg17
I13
sbs(I4
I18
tp783
g1
(g10
g3
NtRp784
(dp785
g13
F-0.70927657995673732
sg14
I4
sg15
I01
sg16
I18
sg17
I230
sbs(I7
I7
tp786
g1
(g10
g3
NtRp787
(dp788
g13
F17.661119580712761
sg14
I7
sg15
I01
sg16
I7
sg17
I20
sbs(I5
I19
tp789
g1
(g10
g3
NtRp790
(dp791
g13
F6.30505508267027
sg14
I5
sg15
I01
sg16
I19
sg17
I254
sbs(I16
I21
tp792
g1
(g10
g3
NtRp793
(dp794
g13
F-4.8688703437079113
sg14
I16
sg15
I01
sg16
I21
sg17
I327
sbs(I21
I16
tp795
g1
(g10
g3
NtRp796
(dp797
g13
F-15.338048125105789
sg14
I21
sg15
I01
sg16
I16
sg17
I335
sbs(I17
I16
tp798
g1
(g10
g3
NtRp799
(dp800
g13
F-13.613721847303307
sg14
I17
sg15
I00
sg16
I16
sg17
I223
sbs(I15
I18
tp801
g1
(g10
g3
NtRp802
(dp803
g13
F7.5846561862719239
sg14
I15
sg15
I01
sg16
I18
sg17
I225
sbs(I11
I18
tp804
g1
(g10
g3
NtRp805
(dp806
g13
F-21.274009014641575
sg14
I11
sg15
I01
sg16
I18
sg17
I211
sbs(I12
I21
tp807
g1
(g10
g3
NtRp808
(dp809
g13
F0.23724029980604211
sg14
I12
sg15
I01
sg16
I21
sg17
I320
sbs(I16
I12
tp810
g1
(g10
g3
NtRp811
(dp812
g13
F17.865678003054569
sg14
I16
sg15
I01
sg16
I12
sg17
I190
sbs(I6
I19
tp813
g1
(g10
g3
NtRp814
(dp815
g13
F21.543302639747715
sg14
I6
sg15
I01
sg16
I19
sg17
I266
sbs(I19
I9
tp816
g1
(g10
g3
NtRp817
(dp818
g13
F-1.9830786851374893
sg14
I19
sg15
I01
sg16
I9
sg17
I242
sbs(I17
I9
tp819
g1
(g10
g3
NtRp820
(dp821
g13
F-11.255633193343526
sg14
I17
sg15
I01
sg16
I9
sg17
I197
sbs(I18
I14
tp822
g1
(g10
g3
NtRp823
(dp824
g13
F-10.060805735409623
sg14
I18
sg15
I01
sg16
I14
sg17
I215
sbs(I8
I8
tp825
g1
(g10
g3
NtRp826
(dp827
g13
F9.1944964998947754
sg14
I8
sg15
I01
sg16
I8
sg17
I32
sbs(I9
I5
tp828
g1
(g10
g3
NtRp829
(dp830
g13
F36.29657323228674
sg14
I9
sg15
I01
sg16
I5
sg17
I36
sbs(I11
I11
tp831
g1
(g10
g3
NtRp832
(dp833
g13
F-13.114745044209245
sg14
I11
sg15
I01
sg16
I11
sg17
I76
sbs(I12
I12
tp834
g1
(g10
g3
NtRp835
(dp836
g13
F-22.179247226514697
sg14
I12
sg15
I01
sg16
I12
sg17
I109
sbs(I1
I17
tp837
g1
(g10
g3
NtRp838
(dp839
g13
F4.6384796445960355
sg14
I1
sg15
I01
sg16
I17
sg17
I226
sbs(I13
I17
tp840
g1
(g10
g3
NtRp841
(dp842
g13
F-12.457755180109892
sg14
I13
sg15
I01
sg16
I17
sg17
I199
sbs(I3
I7
tp843
g1
(g10
g3
NtRp844
(dp845
g13
F-14.126045732094301
sg14
I3
sg15
I01
sg16
I7
sg17
I11
sbs(I1
I11
tp846
g1
(g10
g3
NtRp847
(dp848
g13
F-41.344032512146619
sg14
I1
sg15
I01
sg16
I11
sg17
I58
sbs(I5
I5
tp849
g1
(g10
g3
NtRp850
(dp851
g13
F26.362422176087613
sg14
I5
sg15
I01
sg16
I5
sg17
I5
sbs(I6
I10
tp852
g1
(g10
g3
NtRp853
(dp854
g13
F-2.5240370220440074
sg14
I6
sg15
I01
sg16
I10
sg17
I49
sbs(I19
I14
tp855
g1
(g10
g3
NtRp856
(dp857
g13
F-3.6154184997978076
sg14
I19
sg15
I01
sg16
I14
sg17
I272
sbs(I7
I19
tp858
g1
(g10
g3
NtRp859
(dp860
g13
F1.400342020335412
sg14
I7
sg15
I01
sg16
I19
sg17
I256
sbs(I20
I9
tp861
g1
(g10
g3
NtRp862
(dp863
g13
F9.3180122909147212
sg14
I20
sg15
I01
sg16
I9
sg17
I329
sbs(I18
I9
tp864
g1
(g10
g3
NtRp865
(dp866
g13
F-7.2482404667890412
sg14
I18
sg15
I01
sg16
I9
sg17
I269
sbs(I21
I12
tp867
g1
(g10
g3
NtRp868
(dp869
g13
F1.8350412306708712
sg14
I21
sg15
I01
sg16
I12
sg17
I365
sbs(I8
I15
tp870
g1
(g10
g3
NtRp871
(dp872
g13
F19.062615916010181
sg14
I8
sg15
I01
sg16
I15
sg17
I147
sbs(I9
I14
tp873
g1
(g10
g3
NtRp874
(dp875
g13
F-13.110604017688718
sg14
I9
sg15
I01
sg16
I14
sg17
I101
sbs(I10
I13
tp876
g1
(g10
g3
NtRp877
(dp878
g13
F-12.316742292602576
sg14
I10
sg15
I01
sg16
I13
sg17
I106
sbs(I8
I21
tp879
g1
(g10
g3
NtRp880
(dp881
g13
F15.457414264490874
sg14
I8
sg15
I01
sg16
I21
sg17
I341
sbs(I9
I16
tp882
g1
(g10
g3
NtRp883
(dp884
g13
F19.666665054791956
sg14
I9
sg15
I01
sg16
I16
sg17
I193
sbs(I14
I15
tp885
g1
(g10
g3
NtRp886
(dp887
g13
F-20.676174009110643
sg14
I14
sg15
I01
sg16
I15
sg17
I155
sbs(I12
I11
tp888
g1
(g10
g3
NtRp889
(dp890
g13
F-19.207782670371714
sg14
I12
sg15
I01
sg16
I11
sg17
I84
sbs(I15
I14
tp891
g1
(g10
g3
NtRp892
(dp893
g13
F-0.4561304922688465
sg14
I15
sg15
I01
sg16
I14
sg17
I180
sbs(I13
I10
tp894
g1
(g10
g3
NtRp895
(dp896
g13
F9.9605157402565663
sg14
I13
sg15
I01
sg16
I10
sg17
I97
sbs(I2
I17
tp897
g1
(g10
g3
NtRp898
(dp899
g13
F-3.690565424668673
sg14
I2
sg15
I01
sg16
I17
sg17
I191
sbs(I3
I12
tp900
g1
(g10
g3
NtRp901
(dp902
g13
F37.76915612441482
sg14
I3
sg15
I01
sg16
I12
sg17
I91
sbs(I1
I12
tp903
g1
(g10
g3
NtRp904
(dp905
g13
F-15.381261276126603
sg14
I1
sg15
I01
sg16
I12
sg17
I89
sbs(I4
I15
tp906
g1
(g10
g3
NtRp907
(dp908
g13
F8.5876111643828867
sg14
I4
sg15
I01
sg16
I15
sg17
I185
sbs(I2
I11
tp909
g1
(g10
g3
NtRp910
(dp911
g13
F-46.771864961554556
sg14
I2
sg15
I01
sg16
I11
sg17
I75
sbs(I5
I14
tp912
g1
(g10
g3
NtRp913
(dp914
g13
F-14.867529916413186
sg14
I5
sg15
I01
sg16
I14
sg17
I126
sbs(I3
I18
tp915
g1
(g10
g3
NtRp916
(dp917
g13
F-13.38803873570841
sg14
I3
sg15
I01
sg16
I18
sg17
I257
sbs(I6
I13
tp918
g1
(g10
g3
NtRp919
(dp920
g13
F0.79555179087528927
sg14
I6
sg15
I01
sg16
I13
sg17
I104
sbs(I4
I21
tp921
g1
(g10
g3
NtRp922
(dp923
g13
F8.2150591323592366
sg14
I4
sg15
I01
sg16
I21
sg17
I328
sbs(I7
I8
tp924
g1
(g10
g3
NtRp925
(dp926
g13
F-8.7801585187139697
sg14
I7
sg15
I01
sg16
I8
sg17
I28
sbs(I20
I16
tp927
g1
(g10
g3
NtRp928
(dp929
g13
F18.140691875178526
sg14
I20
sg15
I01
sg16
I16
sg17
I306
sbs(I16
I16
tp930
g1
(g10
g3
NtRp931
(dp932
g13
F-27.676526605186442
sg14
I16
sg15
I01
sg16
I16
sg17
I168
sbs(I21
I21
tp933
g1
(g10
g3
NtRp934
(dp935
g13
F2.6519327622024402
sg14
I21
sg15
I01
sg16
I21
sg17
I338
sbs(I1
I5
tp936
g1
(g10
g3
NtRp937
(dp938
g13
F9.936902093265843
sg14
I1
sg15
I01
sg16
I5
sg17
I1
sbs(I5
I17
tp939
g1
(g10
g3
NtRp940
(dp941
g13
F-37.240325150569028
sg14
I5
sg15
I01
sg16
I17
sg17
I198
sbs(I20
I5
tp942
g1
(g10
g3
NtRp943
(dp944
g13
F-33.435959727939903
sg14
I20
sg15
I01
sg16
I5
sg17
I300
sbs(I18
I21
tp945
g1
(g10
g3
NtRp946
(dp947
g13
F-3.7161450074007312
sg14
I18
sg15
I01
sg16
I21
sg17
I366
sbs(I11
I20
tp948
g1
(g10
g3
NtRp949
(dp950
g13
F23.070903585014257
sg14
I11
sg15
I01
sg16
I20
sg17
I289
sbs(I16
I14
tp951
g1
(g10
g3
NtRp952
(dp953
g13
F-12.821177394884518
sg14
I16
sg15
I01
sg16
I14
sg17
I229
sbs(I6
I17
tp954
g1
(g10
g3
NtRp955
(dp956
g13
F-7.6723884060390652
sg14
I6
sg15
I01
sg16
I17
sg17
I218
sbs(I19
I11
tp957
g1
(g10
g3
NtRp958
(dp959
g13
F25.552109829152535
sg14
I19
sg15
I01
sg16
I11
sg17
I245
sbs(I17
I15
tp960
g1
(g10
g3
NtRp961
(dp962
g13
F-8.9323068772794691
sg14
I17
sg15
I01
sg16
I15
sg17
I207
sbs(I7
I20
tp963
g1
(g10
g3
NtRp964
(dp965
g13
F-16.699058200576207
sg14
I7
sg15
I01
sg16
I20
sg17
I314
sbs(I20
I12
tp966
g1
(g10
g3
NtRp967
(dp968
g13
F4.2187953133437297
sg14
I20
sg15
I01
sg16
I12
sg17
I319
sbs(I18
I12
tp969
g1
(g10
g3
NtRp970
(dp971
g13
F-3.41206033510423
sg14
I18
sg15
I01
sg16
I12
sg17
I239
sbs(I8
I10
tp972
g1
(g10
g3
NtRp973
(dp974
g13
F-20.139716506689023
sg14
I8
sg15
I01
sg16
I10
sg17
I46
sbs(I9
I11
tp975
g1
(g10
g3
NtRp976
(dp977
g13
F-42.479795503380664
sg14
I9
sg15
I01
sg16
I11
sg17
I71
sbs(I8
I16
tp978
g1
(g10
g3
NtRp979
(dp980
g13
F10.108096610140475
sg14
I8
sg15
I01
sg16
I16
sg17
I194
sbs(I11
I13
tp981
g1
(g10
g3
NtRp982
(dp983
g13
F29.007563238034802
sg14
I11
sg15
I01
sg16
I13
sg17
I105
sbs(I14
I10
tp984
g1
(g10
g3
NtRp985
(dp986
g13
F1.9659512177933751
sg14
I14
sg15
I01
sg16
I10
sg17
I124
sbs(I12
I14
tp987
g1
(g10
g3
NtRp988
(dp989
g13
F17.803028944059236
sg14
I12
sg15
I01
sg16
I14
sg17
I141
sbs(I13
I15
tp990
g1
(g10
g3
NtRp991
(dp992
g13
F35.243344209913062
sg14
I13
sg15
I01
sg16
I15
sg17
I150
sbs(I2
I20
tp993
g1
(g10
g3
NtRp994
(dp995
g13
F-27.920588744944425
sg14
I2
sg15
I01
sg16
I20
sg17
I302
sbs(I3
I9
tp996
g1
(g10
g3
NtRp997
(dp998
g13
F-36.782381312917266
sg14
I3
sg15
I01
sg16
I9
sg17
I40
sbs(I1
I9
tp999
g1
(g10
g3
NtRp1000
(dp1001
g13
F4.4222421479144911
sg14
I1
sg15
I01
sg16
I9
sg17
I33
sbs(I2
I14
tp1002
g1
(g10
g3
NtRp1003
(dp1004
g13
F-17.266614035559549
sg14
I2
sg15
I01
sg16
I14
sg17
I127
sbs(I16
I5
tp1005
g1
(g10
g3
NtRp1006
(dp1007
g13
F-7.5370253129037383
sg14
I16
sg15
I01
sg16
I5
sg17
I170
sbs(I6
I8
tp1008
g1
(g10
g3
NtRp1009
(dp1010
g13
F32.793165445125346
sg14
I6
sg15
I01
sg16
I8
sg17
I30
sbs(I19
I16
tp1011
g1
(g10
g3
NtRp1012
(dp1013
g13
F-4.494608437073893
sg14
I19
sg15
I01
sg16
I16
sg17
I258
sbs(I7
I13
tp1014
g1
(g10
g3
NtRp1015
(dp1016
g13
F23.100034137839852
sg14
I7
sg15
I01
sg16
I13
sg17
I113
sbs(I20
I11
tp1017
g1
(g10
g3
NtRp1018
(dp1019
g13
F-3.4590562373834874
sg14
I20
sg15
I01
sg16
I11
sg17
I285
sbs(I18
I7
tp1020
g1
(g10
g3
NtRp1021
(dp1022
g13
F-16.254912306047689
sg14
I18
sg15
I01
sg16
I7
sg17
I212
sbs(I21
I10
tp1023
g1
(g10
g3
NtRp1024
(dp1025
g13
F4.9995708912216239
sg14
I21
sg15
I01
sg16
I10
sg17
I337
sbs(I9
I12
tp1026
g1
(g10
g3
NtRp1027
(dp1028
g13
F35.197747559613966
sg14
I9
sg15
I01
sg16
I12
sg17
I80
sbs(I10
I11
tp1029
g1
(g10
g3
NtRp1030
(dp1031
g13
F-4.3446418610131428
sg14
I10
sg15
I01
sg16
I11
sg17
I72
sbs(I14
I13
tp1032
g1
(g10
g3
NtRp1033
(dp1034
g13
F-9.083434437054537
sg14
I14
sg15
I01
sg16
I13
sg17
I140
sbs(I12
I5
tp1035
g1
(g10
g3
NtRp1036
(dp1037
g13
F-13.560964223004374
sg14
I12
sg15
I01
sg16
I5
sg17
I79
sbs(I10
I21
tp1038
g1
(g10
g3
NtRp1039
(dp1040
g13
F0.040631158716495142
sg14
I10
sg15
I01
sg16
I21
sg17
I316
sbs(I15
I8
tp1041
g1
(g10
g3
NtRp1042
(dp1043
g13
F-50
sg14
I15
sg15
I01
sg16
I8
sg17
I163
sbs(I13
I8
tp1044
g1
(g10
g3
NtRp1045
(dp1046
g13
F-6.5770244192701419
sg14
I13
sg15
I01
sg16
I8
sg17
I108
sbs(I3
I14
tp1047
g1
(g10
g3
NtRp1048
(dp1049
g13
F1.350417433701617
sg14
I3
sg15
I01
sg16
I14
sg17
I131
sbs(I4
I9
tp1050
g1
(g10
g3
NtRp1051
(dp1052
g13
F-12.939906848760945
sg14
I4
sg15
I01
sg16
I9
sg17
I43
sbs(I2
I9
tp1053
g1
(g10
g3
NtRp1054
(dp1055
g13
F-8.6405470202425931
sg14
I2
sg15
I01
sg16
I9
sg17
I37
sbs(I5
I12
tp1056
g1
(g10
g3
NtRp1057
(dp1058
g13
F-34.513334278787539
sg14
I5
sg15
I01
sg16
I12
sg17
I85
sbs(I3
I20
tp1059
g1
(g10
g3
NtRp1060
(dp1061
g13
F7.8647288504911508
sg14
I3
sg15
I01
sg16
I20
sg17
I318
sbs(I7
I10
tp1062
g1
(g10
g3
NtRp1063
(dp1064
g13
F6.8186587315384379
sg14
I7
sg15
I01
sg16
I10
sg17
I51
sbs(I20
I18
tp1065
g1
(g10
g3
NtRp1066
(dp1067
g13
F10.818937189447311
sg14
I20
sg15
I01
sg16
I18
sg17
I312
sbs(I16
I18
tp1068
g1
(g10
g3
NtRp1069
(dp1070
g13
F3.3784540359759605
sg14
I16
sg15
I01
sg16
I18
sg17
I243
sbs(I21
I19
tp1071
g1
(g10
g3
NtRp1072
(dp1073
g13
F-7.9607122463615561
sg14
I21
sg15
I01
sg16
I19
sg17
I358
sbs(I17
I19
tp1074
g1
(g10
g3
NtRp1075
(dp1076
g13
F-7.5175997205414511
sg14
I17
sg15
I01
sg16
I19
sg17
I281
sbs(I14
I20
tp1077
g1
(g10
g3
NtRp1078
(dp1079
g13
F10.933803974900169
sg14
I14
sg15
I01
sg16
I20
sg17
I284
sbs(I15
I17
tp1080
g1
(g10
g3
NtRp1081
(dp1082
g13
F-29.686826526432917
sg14
I15
sg15
I01
sg16
I17
sg17
I227
sbs(I11
I17
tp1083
g1
(g10
g3
NtRp1084
(dp1085
g13
F-23.028524214219054
sg14
I11
sg15
I01
sg16
I17
sg17
I204
sbssS'_input_nodes'
p1086
I4
sS'_output_nodes'
p1087
I1
sS'_node_gene_type'
p1088
cneat.genome
NodeGene
p1089
sS'_conn_gene_type'
p1090
g10
sS'fitness'
p1091
I487
sS'parent2_id'
p1092
I100046
sS'_id'
p1093
I100144
sS'parent1_id'
p1094
I100043
sS'_node_genes'
p1095
(lp1096
g1
(g1089
g3
NtRp1097
(dp1098
S'_bias'
p1099
I0
sS'_type'
p1100
S'INPUT'
p1101
sg1093
I1
sS'_response'
p1102
F4.9242730000000003
sS'_activation_type'
p1103
Nsbag1
(g1089
g3
NtRp1104
(dp1105
g1099
I0
sg1100
g1101
sg1093
I2
sg1102
F4.9242730000000003
sg1103
Nsbag1
(g1089
g3
NtRp1106
(dp1107
g1099
I0
sg1100
g1101
sg1093
I3
sg1102
F4.9242730000000003
sg1103
Nsbag1
(g1089
g3
NtRp1108
(dp1109
g1099
I0
sg1100
g1101
sg1093
I4
sg1102
F4.9242730000000003
sg1103
Nsbag1
(g1089
g3
NtRp1110
(dp1111
g1099
F-18.156330895859533
sg1100
S'OUTPUT'
p1112
sg1093
I5
sg1102
F29.420589394710674
sg1103
S'exp'
p1113
sbag1
(g1089
g3
NtRp1114
(dp1115
g1099
F-28.751419512755351
sg1100
S'HIDDEN'
p1116
sg1093
I6
sg1102
F14.695619812754092
sg1103
g1113
sbag1
(g1089
g3
NtRp1117
(dp1118
g1099
F-19.799384514158184
sg1100
g1116
sg1093
I7
sg1102
F12.854469920383764
sg1103
g1113
sbag1
(g1089
g3
NtRp1119
(dp1120
g1099
F-22.64665415023623
sg1100
g1116
sg1093
I8
sg1102
F4.4730155020792459
sg1103
g1113
sbag1
(g1089
g3
NtRp1121
(dp1122
g1099
F-6.1365677877010931
sg1100
g1116
sg1093
I9
sg1102
F14.768285327083364
sg1103
g1113
sbag1
(g1089
g3
NtRp1123
(dp1124
g1099
F-10.328469352339498
sg1100
g1116
sg1093
I10
sg1102
F-12.261975484147266
sg1103
g1113
sbag1
(g1089
g3
NtRp1125
(dp1126
g1099
F2.9715450288405365
sg1100
g1116
sg1093
I11
sg1102
F-0.97966114724604614
sg1103
g1113
sbag1
(g1089
g3
NtRp1127
(dp1128
g1099
F-9.4101587100527571
sg1100
g1116
sg1093
I12
sg1102
F-26.343411316722175
sg1103
g1113
sbag1
(g1089
g3
NtRp1129
(dp1130
g1099
F-25.179248028514642
sg1100
g1116
sg1093
I13
sg1102
F-2.7491925315250447
sg1103
g1113
sbag1
(g1089
g3
NtRp1131
(dp1132
g1099
F-1.3770275511347789
sg1100
g1116
sg1093
I14
sg1102
F7.0243990674046257
sg1103
g1113
sbag1
(g1089
g3
NtRp1133
(dp1134
g1099
F-25.919171078489637
sg1100
g1116
sg1093
I15
sg1102
F6.3434696792508465
sg1103
g1113
sbag1
(g1089
g3
NtRp1135
(dp1136
g1099
F-5.7280704825140916
sg1100
g1116
sg1093
I16
sg1102
F-5.3572095709499497
sg1103
g1113
sbag1
(g1089
g3
NtRp1137
(dp1138
g1099
F2.0157638529928761
sg1100
g1116
sg1093
I17
sg1102
F7.0305372053359161
sg1103
g1113
sbag1
(g1089
g3
NtRp1139
(dp1140
g1099
F0.0046714824023797452
sg1100
g1116
sg1093
I18
sg1102
F-2.3885976521932983
sg1103
g1113
sbag1
(g1089
g3
NtRp1141
(dp1142
g1099
F2.8969707260897244
sg1100
g1116
sg1093
I19
sg1102
F23.659812173454604
sg1103
g1113
sbag1
(g1089
g3
NtRp1143
(dp1144
g1099
F-13.549282001744414
sg1100
g1116
sg1093
I20
sg1102
F2.8481386746138879
sg1103
g1113
sbag1
(g1089
g3
NtRp1145
(dp1146
g1099
F-2.5456929000469843
sg1100
g1116
sg1093
I21
sg1102
F4.0890520771194527
sg1103
g1113
sbasb.