ccopy_reg
_reconstructor
p1
(cneat.chromosome
Chromosome
p2
c__builtin__
object
p3
NtRp4
(dp5
S'species_id'
p6
I48
sS'_connection_genes'
p7
(dp8
(I4
I7
tp9
g1
(cneat.genome
ConnectionGene
p10
g3
NtRp11
(dp12
S'_ConnectionGene__weight'
p13
F-2.2396982791054172
sS'_ConnectionGene__in'
p14
I4
sS'_ConnectionGene__enabled'
p15
I01
sS'_ConnectionGene__out'
p16
I7
sS'_ConnectionGene__innov_number'
p17
I19
sbs(I6
I6
tp18
g1
(g10
g3
NtRp19
(dp20
g13
F19.163110030245353
sg14
I6
sg15
I01
sg16
I6
sg17
I10
sbs(I5
I6
tp21
g1
(g10
g3
NtRp22
(dp23
g13
F-9.329084073958235
sg14
I5
sg15
I01
sg16
I6
sg17
I9
sbs(I2
I8
tp24
g1
(g10
g3
NtRp25
(dp26
g13
F-1.6568131420445655
sg14
I2
sg15
I01
sg16
I8
sg17
I27
sbs(I1
I6
tp27
g1
(g10
g3
NtRp28
(dp29
g13
F9.5416377387630931
sg14
I1
sg15
I01
sg16
I6
sg17
I6
sbs(I3
I7
tp30
g1
(g10
g3
NtRp31
(dp32
g13
F-0.68033946419839453
sg14
I3
sg15
I01
sg16
I7
sg17
I16
sbs(I2
I5
tp33
g1
(g10
g3
NtRp34
(dp35
g13
F16.765011575771613
sg14
I2
sg15
I00
sg16
I5
sg17
I2
sbs(I8
I5
tp36
g1
(g10
g3
NtRp37
(dp38
g13
F1.0545260281273614
sg14
I8
sg15
I01
sg16
I5
sg17
I23
sbs(I5
I8
tp39
g1
(g10
g3
NtRp40
(dp41
g13
F0.41134351345313991
sg14
I5
sg15
I01
sg16
I8
sg17
I26
sbs(I6
I7
tp42
g1
(g10
g3
NtRp43
(dp44
g13
F-7.6966136730670254
sg14
I6
sg15
I01
sg16
I7
sg17
I15
sbs(I5
I5
tp45
g1
(g10
g3
NtRp46
(dp47
g13
F17.584691104348639
sg14
I5
sg15
I01
sg16
I5
sg17
I5
sbs(I7
I6
tp48
g1
(g10
g3
NtRp49
(dp50
g13
F11.541274508502163
sg14
I7
sg15
I01
sg16
I6
sg17
I18
sbs(I4
I8
tp51
g1
(g10
g3
NtRp52
(dp53
g13
F-0.93980782124405082
sg14
I4
sg15
I01
sg16
I8
sg17
I34
sbs(I1
I5
tp54
g1
(g10
g3
NtRp55
(dp56
g13
F-9.6190090340557539
sg14
I1
sg15
I01
sg16
I5
sg17
I1
sbs(I3
I6
tp57
g1
(g10
g3
NtRp58
(dp59
g13
F-1.1535392120907042
sg14
I3
sg15
I01
sg16
I6
sg17
I8
sbs(I8
I6
tp60
g1
(g10
g3
NtRp61
(dp62
g13
F-0.054008611905197366
sg14
I8
sg15
I01
sg16
I6
sg17
I25
sbs(I2
I6
tp63
g1
(g10
g3
NtRp64
(dp65
g13
F6.1081680486549841
sg14
I2
sg15
I01
sg16
I6
sg17
I11
sbs(I4
I5
tp66
g1
(g10
g3
NtRp67
(dp68
g13
F4.7527904684210984
sg14
I4
sg15
I01
sg16
I5
sg17
I4
sbs(I7
I5
tp69
g1
(g10
g3
NtRp70
(dp71
g13
F-2.1378401971861325
sg14
I7
sg15
I01
sg16
I5
sg17
I14
sbs(I8
I7
tp72
g1
(g10
g3
NtRp73
(dp74
g13
F-3.1531188380251627
sg14
I8
sg15
I01
sg16
I7
sg17
I29
sbs(I6
I8
tp75
g1
(g10
g3
NtRp76
(dp77
g13
F1.623040931251905
sg14
I6
sg15
I01
sg16
I8
sg17
I22
sbs(I6
I5
tp78
g1
(g10
g3
NtRp79
(dp80
g13
F43.764492672152585
sg14
I6
sg15
I01
sg16
I5
sg17
I7
sbs(I3
I5
tp81
g1
(g10
g3
NtRp82
(dp83
g13
F16.225615273844973
sg14
I3
sg15
I01
sg16
I5
sg17
I3
sbs(I4
I6
tp84
g1
(g10
g3
NtRp85
(dp86
g13
F4.3781956327638394
sg14
I4
sg15
I00
sg16
I6
sg17
I12
sbs(I1
I8
tp87
g1
(g10
g3
NtRp88
(dp89
g13
F-2.8720091902292877
sg14
I1
sg15
I01
sg16
I8
sg17
I30
sbs(I8
I8
tp90
g1
(g10
g3
NtRp91
(dp92
g13
F0.10199181142160074
sg14
I8
sg15
I01
sg16
I8
sg17
I31
sbs(I1
I7
tp93
g1
(g10
g3
NtRp94
(dp95
g13
F5.3387594691113236
sg14
I1
sg15
I00
sg16
I7
sg17
I13
sbs(I7
I8
tp96
g1
(g10
g3
NtRp97
(dp98
g13
F1.8529826278204518
sg14
I7
sg15
I01
sg16
I8
sg17
I24
sbssS'_input_nodes'
p99
I4
sS'_output_nodes'
p100
I1
sS'_node_gene_type'
p101
cneat.genome
NodeGene
p102
sS'_conn_gene_type'
p103
g10
sS'fitness'
p104
I232
sS'parent2_id'
p105
I19873
sS'_id'
p106
I19984
sS'parent1_id'
p107
I19878
sS'_node_genes'
p108
(lp109
g1
(g102
g3
NtRp110
(dp111
S'_bias'
p112
I0
sS'_type'
p113
S'INPUT'
p114
sg106
I1
sS'_response'
p115
F4.9242730000000003
sS'_activation_type'
p116
Nsbag1
(g102
g3
NtRp117
(dp118
g112
I0
sg113
g114
sg106
I2
sg115
F4.9242730000000003
sg116
Nsbag1
(g102
g3
NtRp119
(dp120
g112
I0
sg113
g114
sg106
I3
sg115
F4.9242730000000003
sg116
Nsbag1
(g102
g3
NtRp121
(dp122
g112
I0
sg113
g114
sg106
I4
sg115
F4.9242730000000003
sg116
Nsbag1
(g102
g3
NtRp123
(dp124
g112
F3.4128413995923115
sg113
S'OUTPUT'
p125
sg106
I5
sg115
F-4.1237980178081841
sg116
S'exp'
p126
sbag1
(g102
g3
NtRp127
(dp128
g112
F-2.4035079583855987
sg113
S'HIDDEN'
p129
sg106
I6
sg115
F-10.827698240034721
sg116
g126
sbag1
(g102
g3
NtRp130
(dp131
g112
F-2.2236924228851533
sg113
g129
sg106
I7
sg115
F3.9400078065600468
sg116
g126
sbag1
(g102
g3
NtRp132
(dp133
g112
F-1.5277688300591006
sg113
g129
sg106
I8
sg115
F5.8297483462856272
sg116
g126
sbasb.